

Microchip Technology PIC18 LITE Macro Assembler V1.41 build -162212810 
                                                                                               Tue May 23 19:08:28 2017

Microchip Technology Omniscient Code Generator v1.41 (Free mode) build 201701250102
     1                           	processor	18F45K22
     2                           	fnconf	rparam,??,?,0
     3                           	opt	pw 120
     4                           	opt	lm
     5                           	psect	smallconst,global,reloc=2,class=SMALLCONST,delta=1,noexec
     6                           	psect	cinit,global,reloc=2,class=CODE,delta=1
     7                           	psect	bssCOMRAM,global,class=COMRAM,space=1,delta=1,noexec
     8                           	psect	cstackCOMRAM,global,class=COMRAM,space=1,delta=1,noexec
     9                           	psect	text0,global,reloc=2,class=CODE,delta=1
    10                           	psect	text1,global,reloc=2,class=CODE,delta=1
    11                           	psect	text2,global,reloc=2,class=CODE,delta=1
    12                           	psect	text3,global,reloc=2,class=CODE,delta=1
    13                           	psect	text4,global,reloc=2,class=CODE,delta=1
    14                           	psect	text5,global,reloc=2,class=CODE,delta=1
    15                           	psect	text6,global,reloc=2,class=CODE,delta=1
    16                           	psect	text7,global,reloc=2,class=CODE,delta=1
    17                           	psect	text8,global,reloc=2,class=CODE,delta=1
    18                           	psect	text9,global,reloc=2,class=CODE,delta=1
    19                           	psect	text10,global,reloc=2,class=CODE,delta=1
    20                           	psect	text11,global,reloc=2,class=CODE,delta=1
    21                           	psect	intcodelo,global,reloc=2,class=CODE,delta=1
    22                           	psect	intcode,global,reloc=2,class=CODE,delta=1
    23                           	psect	intcode_body,global,reloc=2,class=CODE,delta=1
    24                           	psect	intsave_regs,global,class=BIGRAM,space=1,delta=1,noexec
    25                           	psect	rparam,global,class=COMRAM,space=1,delta=1,noexec
    26                           	psect	temp,global,ovrld,common,class=COMRAM,space=1,delta=1
    27  0000                     
    28                           ; Version 1.41
    29                           ; Generated 25/01/2017 GMT
    30                           ; 
    31                           ; Copyright © 2017, Microchip Technology Inc. and its subsidiaries ("Microchip")
    32                           ; All rights reserved.
    33                           ; 
    34                           ; This software is developed by Microchip Technology Inc. and its subsidiaries ("Microch
      +                          ip").
    35                           ; 
    36                           ; Redistribution and use in source and binary forms, with or without modification, are
    37                           ; permitted provided that the following conditions are met:
    38                           ; 
    39                           ;     1. Redistributions of source code must retain the above copyright notice, this lis
      +                          t of
    40                           ;        conditions and the following disclaimer.
    41                           ; 
    42                           ;     2. Redistributions in binary form must reproduce the above copyright notice, this 
      +                          list
    43                           ;        of conditions and the following disclaimer in the documentation and/or other
    44                           ;        materials provided with the distribution.
    45                           ; 
    46                           ;     3. Microchip's name may not be used to endorse or promote products derived from th
      +                          is
    47                           ;        software without specific prior written permission.
    48                           ; 
    49                           ; THIS SOFTWARE IS PROVIDED BY MICROCHIP "AS IS" AND ANY EXPRESS OR IMPLIED WARRANTIES,
    50                           ; INCLUDING, BUT NOT LIMITED TO, THE IMPLIED WARRANTIES OF MERCHANTABILITY AND FITNESS F
      +                          OR
    51                           ; PURPOSE ARE DISCLAIMED.  IN NO EVENT SHALL MICROCHIP BE LIABLE FOR ANY DIRECT, INDIREC
      +                          T,
    52                           ; INCIDENTAL, SPECIAL, EXEMPLARY, OR CONSEQUENTIAL DAMAGES (INCLUDING BUT NOT LIMITED TO
    53                           ; PROCUREMENT OF SUBSTITUTE GOODS OR SERVICES; LOSS OF USE, DATA OR PROFITS; OR BUSINESS
    54                           ; INTERRUPTION) HOWSOEVER CAUSED AND ON ANY THEORY OF LIABILITY, WHETHER IN CONTRACT, ST
      +                          RICT
    55                           ; LIABILITY, OR TORT (INCLUDING NEGLIGENCE OR OTHERWISE) ARISING IN ANY WAY OUT OF THE U
      +                          SE OF
    56                           ; THIS SOFTWARE, EVEN IF ADVISED OF THE POSSIBILITY OF SUCH DAMAGE.
    57                           ; 
    58                           ; 
    59                           ; Code-generator required, PIC18F45K22 Definitions
    60                           ; 
    61                           ; SFR Addresses
    62  0000                     
    63                           	psect	smallconst
    64  000600                     __psmallconst:
    65                           	opt stack 0
    66  000600  00                 	db	0
    67  000601                     weight@F86:
    68                           	opt stack 0
    69  000601  00                 	db	0
    70  000602  01                 	db	1
    71  000603  01                 	db	1
    72  000604  02                 	db	2
    73  000605  01                 	db	1
    74  000606  02                 	db	2
    75  000607  02                 	db	2
    76  000608  03                 	db	3
    77  000609  01                 	db	1
    78  00060A  02                 	db	2
    79  00060B  02                 	db	2
    80  00060C  03                 	db	3
    81  00060D  02                 	db	2
    82  00060E  03                 	db	3
    83  00060F  03                 	db	3
    84  000610  04                 	db	4
    85  000611                     __end_ofweight@F86:
    86                           	opt stack 0
    87  0000                     _ANSELDbits	set	3899
    88  0000                     _ANSELBbits	set	3897
    89  0000                     _ANSELAbits	set	3896
    90  0000                     _VREFCON0bits	set	3906
    91  0000                     _TMR2	set	4028
    92  0000                     _T2CONbits	set	4026
    93  0000                     _INTCONbits	set	4082
    94  0000                     _IPR1bits	set	3999
    95  0000                     _PIE1bits	set	3997
    96  0000                     _T1CONbits	set	4045
    97  0000                     _RCONbits	set	4048
    98  0000                     _LATDbits	set	3980
    99  0000                     _TRISDbits	set	3989
   100  0000                     _LATBbits	set	3978
   101  0000                     _TRISBbits	set	3987
   102  0000                     _WPUB	set	3937
   103  0000                     _LATAbits	set	3977
   104  0000                     _TRISAbits	set	3986
   105  0000                     _ADCON2	set	4032
   106  0000                     _ADCON1	set	4033
   107  0000                     _PORTAbits	set	3968
   108  0000                     _TMR1L	set	4046
   109  0000                     _TMR1H	set	4047
   110  0000                     _PIR1bits	set	3998
   111  0000                     _RBPU	set	32655
   112  000611  30                 	db	48	;'0'
   113  000612  00                 	db	0
   114  000613  31                 	db	49	;'1'
   115  000614  00                 	db	0
   116                           
   117                           ; #config settings
   118  000615  00                 	db	0	; dummy byte at the end
   119  0000                     
   120                           	psect	cinit
   121  000A4A                     __pcinit:
   122                           	opt stack 0
   123  000A4A                     start_initialization:
   124                           	opt stack 0
   125  000A4A                     __initialization:
   126                           	opt stack 0
   127                           
   128                           ; Clear objects allocated to COMRAM (2 bytes)
   129  000A4A  6A3D               	clrf	(__pbssCOMRAM+1)& (0+255),c
   130  000A4C  6A3C               	clrf	__pbssCOMRAM& (0+255),c
   131  000A4E                     end_of_initialization:
   132                           	opt stack 0
   133  000A4E                     __end_of__initialization:
   134                           	opt stack 0
   135  000A4E  903E               	bcf	int$flags,0,c	;clear compiler interrupt flag (level 1)
   136  000A50  923E               	bcf	int$flags,1,c	;clear compiler interrupt flag (level 2)
   137  000A52  0E00               	movlw	low (__Lsmallconst shr (0+16))
   138  000A54  6EF8               	movwf	tblptru,c
   139  000A56  0E06               	movlw	high __Lsmallconst
   140  000A58  6EF7               	movwf	tblptrh,c
   141  000A5A  0100               	movlb	0
   142  000A5C  EF39  F005         	goto	_main	;jump to C main() function
   143                           tblptru	equ	0xFF8
   144                           tblptrh	equ	0xFF7
   145                           
   146                           	psect	bssCOMRAM
   147  00003C                     __pbssCOMRAM:
   148                           	opt stack 0
   149  00003C                     high_priority_int@tmr1_interrupt_number:
   150                           	opt stack 0
   151  00003C                     	ds	2
   152                           tblptru	equ	0xFF8
   153                           tblptrh	equ	0xFF7
   154                           
   155                           	psect	cstackCOMRAM
   156  000001                     __pcstackCOMRAM:
   157                           	opt stack 0
   158  000001                     ??_high_priority_int:
   159  000001                     
   160                           ; 1 bytes @ 0x0
   161  000001                     	ds	15
   162  000010                     ??_low_priority_int:
   163                           
   164                           ; 1 bytes @ 0xF
   165  000010                     	ds	17
   166  000021                     ?_golay:
   167                           	opt stack 0
   168  000021                     util_waits_delay_ms@ms:
   169                           	opt stack 0
   170  000021                     golay@cw:
   171                           	opt stack 0
   172                           
   173                           ; 4 bytes @ 0x20
   174  000021                     	ds	2
   175  000023                     ??_util_waits_delay_ms:
   176                           
   177                           ; 1 bytes @ 0x22
   178  000023                     	ds	1
   179  000024                     util_waits_delay_ms@i:
   180                           	opt stack 0
   181                           
   182                           ; 2 bytes @ 0x23
   183  000024                     	ds	1
   184  000025                     ??_golay:
   185                           
   186                           ; 1 bytes @ 0x24
   187  000025                     	ds	1
   188  000026                     util_waits_delay_secs@secs:
   189                           	opt stack 0
   190  000026                     send_ask_command@command:
   191                           	opt stack 0
   192                           
   193                           ; 4 bytes @ 0x25
   194  000026                     	ds	2
   195  000028                     ??_util_waits_delay_secs:
   196                           
   197                           ; 1 bytes @ 0x27
   198  000028                     	ds	1
   199  000029                     util_waits_delay_secs@i:
   200                           	opt stack 0
   201  000029                     golay@c:
   202                           	opt stack 0
   203                           
   204                           ; 4 bytes @ 0x28
   205  000029                     	ds	1
   206  00002A                     ??_send_ask_command:
   207                           
   208                           ; 1 bytes @ 0x29
   209  00002A                     	ds	1
   210  00002B                     util_waits_delay_secs@j:
   211                           	opt stack 0
   212                           
   213                           ; 2 bytes @ 0x2A
   214  00002B                     	ds	2
   215  00002D                     util_waits_delay_mins@minutes:
   216                           	opt stack 0
   217  00002D                     golay@i:
   218                           	opt stack 0
   219                           
   220                           ; 2 bytes @ 0x2C
   221  00002D                     	ds	1
   222  00002E                     send_ask_command@i:
   223                           	opt stack 0
   224                           
   225                           ; 2 bytes @ 0x2D
   226  00002E                     	ds	1
   227  00002F                     ??_util_waits_delay_mins:
   228                           
   229                           ; 1 bytes @ 0x2E
   230  00002F                     	ds	1
   231  000030                     send_ask_command@bit_to_transfer:
   232                           	opt stack 0
   233  000030                     util_waits_delay_mins@i:
   234                           	opt stack 0
   235                           
   236                           ; 2 bytes @ 0x2F
   237  000030                     	ds	2
   238  000032                     send_ask_command@current_signal_level:
   239                           	opt stack 0
   240                           
   241                           ; 2 bytes @ 0x31
   242  000032                     	ds	2
   243  000034                     main_loop@test_command:
   244                           	opt stack 0
   245                           
   246                           ; 4 bytes @ 0x33
   247  000034                     	ds	4
   248  000038                     main_loop@golay_command:
   249                           	opt stack 0
   250                           
   251                           ; 4 bytes @ 0x37
   252  000038                     	ds	4
   253  00003C                     tblptru	equ	0xFF8
   254                           tblptrh	equ	0xFF7
   255                           
   256                           ; 1 bytes @ 0x3B
   257 ;;
   258 ;;Main: autosize = 0, tempsize = 0, incstack = 0, save=0
   259 ;;
   260 ;; *************** function _main *****************
   261 ;; Defined at:
   262 ;;		line 19 in file "easat2_ask_main_mcu.c"
   263 ;; Parameters:    Size  Location     Type
   264 ;;		None
   265 ;; Auto vars:     Size  Location     Type
   266 ;;		None
   267 ;; Return value:  Size  Location     Type
   268 ;;                  1    wreg      void 
   269 ;; Registers used:
   270 ;;		wreg, status,2, status,0, cstack
   271 ;; Tracked objects:
   272 ;;		On entry : 0/0
   273 ;;		On exit  : 0/0
   274 ;;		Unchanged: 0/0
   275 ;; Data sizes:     COMRAM   BANK0   BANK1   BANK2   BANK3   BANK4   BANK5
   276 ;;      Params:         0       0       0       0       0       0       0
   277 ;;      Locals:         0       0       0       0       0       0       0
   278 ;;      Temps:          0       0       0       0       0       0       0
   279 ;;      Totals:         0       0       0       0       0       0       0
   280 ;;Total ram usage:        0 bytes
   281 ;; Hardware stack levels required when called:    6
   282 ;; This function calls:
   283 ;;		_init_initialize
   284 ;;		_main_loop
   285 ;; This function is called by:
   286 ;;		Startup code after reset
   287 ;; This function uses a non-reentrant model
   288 ;;
   289                           
   290                           	psect	text0
   291  000A72                     __ptext0:
   292                           	opt stack 0
   293  000A72                     _main:
   294                           	opt stack 25
   295                           
   296                           ;easat2_ask_main_mcu.c: 22: init_initialize();
   297                           
   298                           ;incstack = 0
   299  000A72  EC30  F005         	call	_init_initialize	;wreg free
   300                           
   301                           ;easat2_ask_main_mcu.c: 25: main_loop();
   302  000A76  EC7D  F004         	call	_main_loop	;wreg free
   303  000A7A  EF53  F000         	goto	start
   304  000A7E                     __end_of_main:
   305                           	opt stack 0
   306                           tblptru	equ	0xFF8
   307                           tblptrh	equ	0xFF7
   308                           
   309 ;; *************** function _main_loop *****************
   310 ;; Defined at:
   311 ;;		line 31 in file "easat2_ask_main_mcu.c"
   312 ;; Parameters:    Size  Location     Type
   313 ;;		None
   314 ;; Auto vars:     Size  Location     Type
   315 ;;  golay_comman    4   55[COMRAM] unsigned long 
   316 ;;  test_command    4   51[COMRAM] unsigned long 
   317 ;; Return value:  Size  Location     Type
   318 ;;                  1    wreg      void 
   319 ;; Registers used:
   320 ;;		wreg, status,2, status,0, cstack
   321 ;; Tracked objects:
   322 ;;		On entry : 0/0
   323 ;;		On exit  : 0/0
   324 ;;		Unchanged: 0/0
   325 ;; Data sizes:     COMRAM   BANK0   BANK1   BANK2   BANK3   BANK4   BANK5
   326 ;;      Params:         0       0       0       0       0       0       0
   327 ;;      Locals:         8       0       0       0       0       0       0
   328 ;;      Temps:          0       0       0       0       0       0       0
   329 ;;      Totals:         8       0       0       0       0       0       0
   330 ;;Total ram usage:        8 bytes
   331 ;; Hardware stack levels used:    1
   332 ;; Hardware stack levels required when called:    5
   333 ;; This function calls:
   334 ;;		_golay
   335 ;;		_send_ask_command
   336 ;;		_util_waits_delay_mins
   337 ;; This function is called by:
   338 ;;		_main
   339 ;; This function uses a non-reentrant model
   340 ;;
   341                           
   342                           	psect	text1
   343  0008FA                     __ptext1:
   344                           	opt stack 0
   345  0008FA                     _main_loop:
   346                           	opt stack 25
   347                           
   348                           ;easat2_ask_main_mcu.c: 33: unsigned long test_command = (unsigned int) 0xAAA;
   349                           
   350                           ;incstack = 0
   351  0008FA  0EAA               	movlw	170
   352  0008FC  6E34               	movwf	main_loop@test_command,c
   353  0008FE  0E0A               	movlw	10
   354  000900  6E35               	movwf	main_loop@test_command+1,c
   355  000902  0E00               	movlw	0
   356  000904  6E36               	movwf	main_loop@test_command+2,c
   357  000906  0E00               	movlw	0
   358  000908  6E37               	movwf	main_loop@test_command+3,c
   359                           
   360                           ;easat2_ask_main_mcu.c: 34: unsigned long golay_command = 0;
   361  00090A  0E00               	movlw	0
   362  00090C  6E38               	movwf	main_loop@golay_command,c
   363  00090E  0E00               	movlw	0
   364  000910  6E39               	movwf	main_loop@golay_command+1,c
   365  000912  0E00               	movlw	0
   366  000914  6E3A               	movwf	main_loop@golay_command+2,c
   367  000916  0E00               	movlw	0
   368  000918  6E3B               	movwf	main_loop@golay_command+3,c
   369  00091A                     l1368:
   370                           
   371                           ;easat2_ask_main_mcu.c: 39: golay_command = golay(test_command);
   372  00091A  C034  F021         	movff	main_loop@test_command,golay@cw
   373  00091E  C035  F022         	movff	main_loop@test_command+1,golay@cw+1
   374  000922  C036  F023         	movff	main_loop@test_command+2,golay@cw+2
   375  000926  C037  F024         	movff	main_loop@test_command+3,golay@cw+3
   376  00092A  EC32  F004         	call	_golay	;wreg free
   377  00092E  C021  F038         	movff	?_golay,main_loop@golay_command
   378  000932  C022  F039         	movff	?_golay+1,main_loop@golay_command+1
   379  000936  C023  F03A         	movff	?_golay+2,main_loop@golay_command+2
   380  00093A  C024  F03B         	movff	?_golay+3,main_loop@golay_command+3
   381                           
   382                           ;easat2_ask_main_mcu.c: 42: send_ask_command(golay_command);
   383  00093E  C038  F026         	movff	main_loop@golay_command,send_ask_command@command
   384  000942  C039  F027         	movff	main_loop@golay_command+1,send_ask_command@command+1
   385  000946  C03A  F028         	movff	main_loop@golay_command+2,send_ask_command@command+2
   386  00094A  C03B  F029         	movff	main_loop@golay_command+3,send_ask_command@command+3
   387  00094E  EC0B  F003         	call	_send_ask_command	;wreg free
   388                           
   389                           ;easat2_ask_main_mcu.c: 45: util_waits_delay_mins(1);
   390  000952  0E00               	movlw	0
   391  000954  6E2E               	movwf	util_waits_delay_mins@minutes+1,c
   392  000956  0E01               	movlw	1
   393  000958  6E2D               	movwf	util_waits_delay_mins@minutes,c
   394  00095A  ECD7  F004         	call	_util_waits_delay_mins	;wreg free
   395                           
   396                           ;easat2_ask_main_mcu.c: 48: } while (1);
   397  00095E  D7DD               	goto	l1368
   398  000960                     __end_of_main_loop:
   399                           	opt stack 0
   400                           tblptru	equ	0xFF8
   401                           tblptrh	equ	0xFF7
   402                           
   403 ;; *************** function _util_waits_delay_mins *****************
   404 ;; Defined at:
   405 ;;		line 24 in file "easat2_ask_util_waits.c"
   406 ;; Parameters:    Size  Location     Type
   407 ;;  minutes         2   44[COMRAM] int 
   408 ;; Auto vars:     Size  Location     Type
   409 ;;  i               2   47[COMRAM] int 
   410 ;; Return value:  Size  Location     Type
   411 ;;                  1    wreg      void 
   412 ;; Registers used:
   413 ;;		wreg, status,2, status,0, cstack
   414 ;; Tracked objects:
   415 ;;		On entry : 0/0
   416 ;;		On exit  : 0/0
   417 ;;		Unchanged: 0/0
   418 ;; Data sizes:     COMRAM   BANK0   BANK1   BANK2   BANK3   BANK4   BANK5
   419 ;;      Params:         2       0       0       0       0       0       0
   420 ;;      Locals:         2       0       0       0       0       0       0
   421 ;;      Temps:          1       0       0       0       0       0       0
   422 ;;      Totals:         5       0       0       0       0       0       0
   423 ;;Total ram usage:        5 bytes
   424 ;; Hardware stack levels used:    1
   425 ;; Hardware stack levels required when called:    4
   426 ;; This function calls:
   427 ;;		_util_waits_delay_secs
   428 ;; This function is called by:
   429 ;;		_main_loop
   430 ;;		_util_waits_delay_hours
   431 ;; This function uses a non-reentrant model
   432 ;;
   433                           
   434                           	psect	text2
   435  0009AE                     __ptext2:
   436                           	opt stack 0
   437  0009AE                     _util_waits_delay_mins:
   438                           	opt stack 25
   439                           
   440                           ;easat2_ask_util_waits.c: 25: for (int i = 0; i < minutes; i++)
   441                           
   442                           ;incstack = 0
   443  0009AE  0E00               	movlw	0
   444  0009B0  6E31               	movwf	util_waits_delay_mins@i+1,c
   445  0009B2  0E00               	movlw	0
   446  0009B4  6E30               	movwf	util_waits_delay_mins@i,c
   447  0009B6  D008               	goto	l1364
   448  0009B8                     l1360:
   449                           
   450                           ;easat2_ask_util_waits.c: 26: util_waits_delay_secs(60);
   451  0009B8  0E00               	movlw	0
   452  0009BA  6E27               	movwf	util_waits_delay_secs@secs+1,c
   453  0009BC  0E3C               	movlw	60
   454  0009BE  6E26               	movwf	util_waits_delay_secs@secs,c
   455  0009C0  ECB0  F004         	call	_util_waits_delay_secs	;wreg free
   456  0009C4  4A30               	infsnz	util_waits_delay_mins@i,f,c
   457  0009C6  2A31               	incf	util_waits_delay_mins@i+1,f,c
   458  0009C8                     l1364:
   459  0009C8  502D               	movf	util_waits_delay_mins@minutes,w,c
   460  0009CA  5C30               	subwf	util_waits_delay_mins@i,w,c
   461  0009CC  5031               	movf	util_waits_delay_mins@i+1,w,c
   462  0009CE  0A80               	xorlw	128
   463  0009D0  6E2F               	movwf	??_util_waits_delay_mins& (0+255),c
   464  0009D2  502E               	movf	util_waits_delay_mins@minutes+1,w,c
   465  0009D4  0A80               	xorlw	128
   466  0009D6  582F               	subwfb	??_util_waits_delay_mins& (0+255),w,c
   467  0009D8  B0D8               	btfsc	status,0,c
   468  0009DA  0012               	return	
   469  0009DC  D7ED               	goto	l1360
   470  0009DE                     __end_of_util_waits_delay_mins:
   471                           	opt stack 0
   472                           tblptru	equ	0xFF8
   473                           tblptrh	equ	0xFF7
   474                           status	equ	0xFD8
   475                           
   476 ;; *************** function _util_waits_delay_secs *****************
   477 ;; Defined at:
   478 ;;		line 31 in file "easat2_ask_util_waits.c"
   479 ;; Parameters:    Size  Location     Type
   480 ;;  secs            2   37[COMRAM] int 
   481 ;; Auto vars:     Size  Location     Type
   482 ;;  j               2   42[COMRAM] int 
   483 ;;  i               2   40[COMRAM] int 
   484 ;; Return value:  Size  Location     Type
   485 ;;                  1    wreg      void 
   486 ;; Registers used:
   487 ;;		wreg, status,2, status,0, cstack
   488 ;; Tracked objects:
   489 ;;		On entry : 0/0
   490 ;;		On exit  : 0/0
   491 ;;		Unchanged: 0/0
   492 ;; Data sizes:     COMRAM   BANK0   BANK1   BANK2   BANK3   BANK4   BANK5
   493 ;;      Params:         2       0       0       0       0       0       0
   494 ;;      Locals:         4       0       0       0       0       0       0
   495 ;;      Temps:          1       0       0       0       0       0       0
   496 ;;      Totals:         7       0       0       0       0       0       0
   497 ;;Total ram usage:        7 bytes
   498 ;; Hardware stack levels used:    1
   499 ;; Hardware stack levels required when called:    3
   500 ;; This function calls:
   501 ;;		_util_waits_delay_ms
   502 ;; This function is called by:
   503 ;;		_util_waits_delay_mins
   504 ;; This function uses a non-reentrant model
   505 ;;
   506                           
   507                           	psect	text3
   508  000960                     __ptext3:
   509                           	opt stack 0
   510  000960                     _util_waits_delay_secs:
   511                           	opt stack 25
   512                           
   513                           ;easat2_ask_util_waits.c: 32: for (int i = 0; i < secs; i++) {
   514                           
   515                           ;incstack = 0
   516  000960  0E00               	movlw	0
   517  000962  6E2A               	movwf	util_waits_delay_secs@i+1,c
   518  000964  0E00               	movlw	0
   519  000966  6E29               	movwf	util_waits_delay_secs@i,c
   520  000968  D017               	goto	l1300
   521  00096A                     l1286:
   522                           
   523                           ;easat2_ask_util_waits.c: 33: for (int j = 0; j < 10; j++ )
   524  00096A  0E00               	movlw	0
   525  00096C  6E2C               	movwf	util_waits_delay_secs@j+1,c
   526  00096E  0E00               	movlw	0
   527  000970  6E2B               	movwf	util_waits_delay_secs@j,c
   528  000972                     l1288:
   529  000972  BE2C               	btfsc	util_waits_delay_secs@j+1,7,c
   530  000974  D006               	goto	l1292
   531  000976  502C               	movf	util_waits_delay_secs@j+1,w,c
   532  000978  E10D               	bnz	l1298
   533  00097A  0E0A               	movlw	10
   534  00097C  5C2B               	subwf	util_waits_delay_secs@j,w,c
   535  00097E  B0D8               	btfsc	status,0,c
   536  000980  D009               	goto	l1298
   537  000982                     l1292:
   538                           
   539                           ;easat2_ask_util_waits.c: 34: util_waits_delay_ms(100);
   540  000982  0E00               	movlw	0
   541  000984  6E22               	movwf	util_waits_delay_ms@ms+1,c
   542  000986  0E64               	movlw	100
   543  000988  6E21               	movwf	util_waits_delay_ms@ms,c
   544  00098A  ECEF  F004         	call	_util_waits_delay_ms	;wreg free
   545  00098E  4A2B               	infsnz	util_waits_delay_secs@j,f,c
   546  000990  2A2C               	incf	util_waits_delay_secs@j+1,f,c
   547  000992  D7EF               	goto	l1288
   548  000994                     l1298:
   549  000994  4A29               	infsnz	util_waits_delay_secs@i,f,c
   550  000996  2A2A               	incf	util_waits_delay_secs@i+1,f,c
   551  000998                     l1300:
   552  000998  5026               	movf	util_waits_delay_secs@secs,w,c
   553  00099A  5C29               	subwf	util_waits_delay_secs@i,w,c
   554  00099C  502A               	movf	util_waits_delay_secs@i+1,w,c
   555  00099E  0A80               	xorlw	128
   556  0009A0  6E28               	movwf	??_util_waits_delay_secs& (0+255),c
   557  0009A2  5027               	movf	util_waits_delay_secs@secs+1,w,c
   558  0009A4  0A80               	xorlw	128
   559  0009A6  5828               	subwfb	??_util_waits_delay_secs& (0+255),w,c
   560  0009A8  B0D8               	btfsc	status,0,c
   561  0009AA  0012               	return	
   562  0009AC  D7DE               	goto	l1286
   563  0009AE                     __end_of_util_waits_delay_secs:
   564                           	opt stack 0
   565                           tblptru	equ	0xFF8
   566                           tblptrh	equ	0xFF7
   567                           status	equ	0xFD8
   568                           
   569 ;; *************** function _send_ask_command *****************
   570 ;; Defined at:
   571 ;;		line 20 in file "easat2_ask_send.c"
   572 ;; Parameters:    Size  Location     Type
   573 ;;  command         4   37[COMRAM] unsigned long 
   574 ;; Auto vars:     Size  Location     Type
   575 ;;  current_sign    2   49[COMRAM] int 
   576 ;;  bit_to_trans    2   47[COMRAM] int 
   577 ;;  i               2   45[COMRAM] int 
   578 ;; Return value:  Size  Location     Type
   579 ;;                  1    wreg      void 
   580 ;; Registers used:
   581 ;;		wreg, status,2, status,0, cstack
   582 ;; Tracked objects:
   583 ;;		On entry : 0/0
   584 ;;		On exit  : 0/0
   585 ;;		Unchanged: 0/0
   586 ;; Data sizes:     COMRAM   BANK0   BANK1   BANK2   BANK3   BANK4   BANK5
   587 ;;      Params:         4       0       0       0       0       0       0
   588 ;;      Locals:         6       0       0       0       0       0       0
   589 ;;      Temps:          4       0       0       0       0       0       0
   590 ;;      Totals:        14       0       0       0       0       0       0
   591 ;;Total ram usage:       14 bytes
   592 ;; Hardware stack levels used:    1
   593 ;; Hardware stack levels required when called:    3
   594 ;; This function calls:
   595 ;;		_util_waits_delay_ms
   596 ;; This function is called by:
   597 ;;		_main_loop
   598 ;; This function uses a non-reentrant model
   599 ;;
   600                           
   601                           	psect	text4
   602  000616                     __ptext4:
   603                           	opt stack 0
   604  000616                     _send_ask_command:
   605                           	opt stack 26
   606                           
   607                           ;easat2_ask_send.c: 22: int current_signal_level = 0;
   608                           
   609                           ;incstack = 0
   610  000616  0E00               	movlw	0
   611  000618  6E33               	movwf	send_ask_command@current_signal_level+1,c
   612  00061A  0E00               	movlw	0
   613  00061C  6E32               	movwf	send_ask_command@current_signal_level,c
   614                           
   615                           ;easat2_ask_send.c: 23: int bit_to_transfer = 0;
   616  00061E  0E00               	movlw	0
   617  000620  6E31               	movwf	send_ask_command@bit_to_transfer+1,c
   618  000622  0E00               	movlw	0
   619  000624  6E30               	movwf	send_ask_command@bit_to_transfer,c
   620                           
   621                           ;easat2_ask_send.c: 24: int i = 0;
   622  000626  0E00               	movlw	0
   623  000628  6E2F               	movwf	send_ask_command@i+1,c
   624  00062A  0E00               	movlw	0
   625  00062C  6E2E               	movwf	send_ask_command@i,c
   626  00062E                     l1324:
   627                           
   628                           ;easat2_ask_send.c: 30: bit_to_transfer = command & 1;
   629  00062E  0E01               	movlw	1
   630  000630  1426               	andwf	send_ask_command@command,w,c
   631  000632  6E30               	movwf	send_ask_command@bit_to_transfer,c
   632  000634  6A31               	clrf	send_ask_command@bit_to_transfer+1,c
   633                           
   634                           ;easat2_ask_send.c: 38: if (bit_to_transfer == 1 && current_signal_level == 1)
   635  000636  0430               	decf	send_ask_command@bit_to_transfer,w,c
   636  000638  1031               	iorwf	send_ask_command@bit_to_transfer+1,w,c
   637  00063A  A4D8               	btfss	status,2,c
   638  00063C  D008               	goto	l1332
   639  00063E  0432               	decf	send_ask_command@current_signal_level,w,c
   640  000640  1033               	iorwf	send_ask_command@current_signal_level+1,w,c
   641  000642  A4D8               	btfss	status,2,c
   642  000644  D004               	goto	l1332
   643                           
   644                           ;easat2_ask_send.c: 39: current_signal_level = 0;
   645  000646  0E00               	movlw	0
   646  000648  6E33               	movwf	send_ask_command@current_signal_level+1,c
   647  00064A  0E00               	movlw	0
   648  00064C  6E32               	movwf	send_ask_command@current_signal_level,c
   649  00064E                     l1332:
   650                           
   651                           ;easat2_ask_send.c: 42: if (bit_to_transfer == 0 && current_signal_level == 0)
   652  00064E  5030               	movf	send_ask_command@bit_to_transfer,w,c
   653  000650  1031               	iorwf	send_ask_command@bit_to_transfer+1,w,c
   654  000652  A4D8               	btfss	status,2,c
   655  000654  D008               	goto	l1338
   656  000656  5032               	movf	send_ask_command@current_signal_level,w,c
   657  000658  1033               	iorwf	send_ask_command@current_signal_level+1,w,c
   658  00065A  A4D8               	btfss	status,2,c
   659  00065C  D004               	goto	l1338
   660                           
   661                           ;easat2_ask_send.c: 43: current_signal_level = 1;
   662  00065E  0E00               	movlw	0
   663  000660  6E33               	movwf	send_ask_command@current_signal_level+1,c
   664  000662  0E01               	movlw	1
   665  000664  6E32               	movwf	send_ask_command@current_signal_level,c
   666  000666                     l1338:
   667                           
   668                           ;easat2_ask_send.c: 45: (PORTAbits.RA0) = current_signal_level;
   669  000666  B032               	btfsc	send_ask_command@current_signal_level,0,c
   670  000668  D002               	bra	u625
   671  00066A  9080               	bcf	3968,0,c	;volatile
   672  00066C  D001               	bra	u626
   673  00066E                     u625:
   674  00066E  8080               	bsf	3968,0,c	;volatile
   675  000670                     u626:
   676                           
   677                           ;easat2_ask_send.c: 49: util_waits_delay_ms(5);
   678  000670  0E00               	movlw	0
   679  000672  6E22               	movwf	util_waits_delay_ms@ms+1,c
   680  000674  0E05               	movlw	5
   681  000676  6E21               	movwf	util_waits_delay_ms@ms,c
   682  000678  ECEF  F004         	call	_util_waits_delay_ms	;wreg free
   683                           
   684                           ;easat2_ask_send.c: 53: if (bit_to_transfer == 1) current_signal_level = 1;
   685  00067C  0430               	decf	send_ask_command@bit_to_transfer,w,c
   686  00067E  1031               	iorwf	send_ask_command@bit_to_transfer+1,w,c
   687  000680  A4D8               	btfss	status,2,c
   688  000682  D004               	goto	l1346
   689  000684  0E00               	movlw	0
   690  000686  6E33               	movwf	send_ask_command@current_signal_level+1,c
   691  000688  0E01               	movlw	1
   692  00068A  D003               	goto	L1
   693  00068C                     l1346:
   694                           
   695                           ;easat2_ask_send.c: 54: else current_signal_level = 0;
   696  00068C  0E00               	movlw	0
   697  00068E  6E33               	movwf	send_ask_command@current_signal_level+1,c
   698  000690  0E00               	movlw	0
   699  000692                     L1:
   700  000692  6E32               	movwf	send_ask_command@current_signal_level,c
   701                           
   702                           ;easat2_ask_send.c: 56: (PORTAbits.RA0) = current_signal_level;
   703  000694  B032               	btfsc	send_ask_command@current_signal_level,0,c
   704  000696  D002               	bra	u645
   705  000698  9080               	bcf	3968,0,c	;volatile
   706  00069A  D001               	bra	u646
   707  00069C                     u645:
   708  00069C  8080               	bsf	3968,0,c	;volatile
   709  00069E                     u646:
   710                           
   711                           ;easat2_ask_send.c: 58: util_waits_delay_ms(5);
   712  00069E  0E00               	movlw	0
   713  0006A0  6E22               	movwf	util_waits_delay_ms@ms+1,c
   714  0006A2  0E05               	movlw	5
   715  0006A4  6E21               	movwf	util_waits_delay_ms@ms,c
   716  0006A6  ECEF  F004         	call	_util_waits_delay_ms	;wreg free
   717                           
   718                           ;easat2_ask_send.c: 65: command = command >> 1;
   719  0006AA  C026  F02A         	movff	send_ask_command@command,??_send_ask_command
   720  0006AE  C027  F02B         	movff	send_ask_command@command+1,??_send_ask_command+1
   721  0006B2  C028  F02C         	movff	send_ask_command@command+2,??_send_ask_command+2
   722  0006B6  C029  F02D         	movff	send_ask_command@command+3,??_send_ask_command+3
   723  0006BA  90D8               	bcf	status,0,c
   724  0006BC  322D               	rrcf	??_send_ask_command+3,f,c
   725  0006BE  322C               	rrcf	??_send_ask_command+2,f,c
   726  0006C0  322B               	rrcf	??_send_ask_command+1,f,c
   727  0006C2  322A               	rrcf	??_send_ask_command,f,c
   728  0006C4  C02A  F026         	movff	??_send_ask_command,send_ask_command@command
   729  0006C8  C02B  F027         	movff	??_send_ask_command+1,send_ask_command@command+1
   730  0006CC  C02C  F028         	movff	??_send_ask_command+2,send_ask_command@command+2
   731  0006D0  C02D  F029         	movff	??_send_ask_command+3,send_ask_command@command+3
   732                           
   733                           ;easat2_ask_send.c: 67: i++;
   734  0006D4  4A2E               	infsnz	send_ask_command@i,f,c
   735  0006D6  2A2F               	incf	send_ask_command@i+1,f,c
   736                           
   737                           ;easat2_ask_send.c: 69: } while (i < 24);
   738  0006D8  BE2F               	btfsc	send_ask_command@i+1,7,c
   739  0006DA  D7A9               	goto	l1324
   740  0006DC  502F               	movf	send_ask_command@i+1,w,c
   741  0006DE  E105               	bnz	l122
   742  0006E0  0E18               	movlw	24
   743  0006E2  5C2E               	subwf	send_ask_command@i,w,c
   744  0006E4  B0D8               	btfsc	status,0,c
   745  0006E6  0012               	return	
   746  0006E8  D7A2               	goto	l1324
   747  0006EA                     l122:
   748  0006EA  0012               	return		;funcret
   749  0006EC                     __end_of_send_ask_command:
   750                           	opt stack 0
   751                           tblptru	equ	0xFF8
   752                           tblptrh	equ	0xFF7
   753                           status	equ	0xFD8
   754                           
   755 ;; *************** function _util_waits_delay_ms *****************
   756 ;; Defined at:
   757 ;;		line 40 in file "easat2_ask_util_waits.c"
   758 ;; Parameters:    Size  Location     Type
   759 ;;  ms              2   32[COMRAM] int 
   760 ;; Auto vars:     Size  Location     Type
   761 ;;  i               2   35[COMRAM] int 
   762 ;; Return value:  Size  Location     Type
   763 ;;                  1    wreg      void 
   764 ;; Registers used:
   765 ;;		wreg, status,2, status,0
   766 ;; Tracked objects:
   767 ;;		On entry : 0/0
   768 ;;		On exit  : 0/0
   769 ;;		Unchanged: 0/0
   770 ;; Data sizes:     COMRAM   BANK0   BANK1   BANK2   BANK3   BANK4   BANK5
   771 ;;      Params:         2       0       0       0       0       0       0
   772 ;;      Locals:         2       0       0       0       0       0       0
   773 ;;      Temps:          1       0       0       0       0       0       0
   774 ;;      Totals:         5       0       0       0       0       0       0
   775 ;;Total ram usage:        5 bytes
   776 ;; Hardware stack levels used:    1
   777 ;; Hardware stack levels required when called:    2
   778 ;; This function calls:
   779 ;;		Nothing
   780 ;; This function is called by:
   781 ;;		_send_ask_command
   782 ;;		_util_waits_delay_secs
   783 ;; This function uses a non-reentrant model
   784 ;;
   785                           
   786                           	psect	text5
   787  0009DE                     __ptext5:
   788                           	opt stack 0
   789  0009DE                     _util_waits_delay_ms:
   790                           	opt stack 25
   791                           
   792                           ;easat2_ask_util_waits.c: 41: for (int i = 0; i < ms; i++)
   793                           
   794                           ;incstack = 0
   795  0009DE  0E00               	movlw	0
   796  0009E0  6E25               	movwf	util_waits_delay_ms@i+1,c
   797  0009E2  0E00               	movlw	0
   798  0009E4  6E24               	movwf	util_waits_delay_ms@i,c
   799  0009E6  D006               	goto	l153
   800  0009E8                     l1280:
   801                           
   802                           ;easat2_ask_util_waits.c: 42: _delay((unsigned long)((1)*(2000000/4000.0)));
   803  0009E8  0EA6               	movlw	166
   804  0009EA                     u687:
   805  0009EA  2EE8               	decfsz	wreg,f,c
   806  0009EC  D7FE               	bra	u687
   807  0009EE  D000               	nop2	
   808  0009F0  4A24               	infsnz	util_waits_delay_ms@i,f,c
   809  0009F2  2A25               	incf	util_waits_delay_ms@i+1,f,c
   810  0009F4                     l153:
   811  0009F4  5021               	movf	util_waits_delay_ms@ms,w,c
   812  0009F6  5C24               	subwf	util_waits_delay_ms@i,w,c
   813  0009F8  5025               	movf	util_waits_delay_ms@i+1,w,c
   814  0009FA  0A80               	xorlw	128
   815  0009FC  6E23               	movwf	??_util_waits_delay_ms& (0+255),c
   816  0009FE  5022               	movf	util_waits_delay_ms@ms+1,w,c
   817  000A00  0A80               	xorlw	128
   818  000A02  5823               	subwfb	??_util_waits_delay_ms& (0+255),w,c
   819  000A04  B0D8               	btfsc	status,0,c
   820  000A06  0012               	return	
   821  000A08  D7EF               	goto	l1280
   822  000A0A                     __end_of_util_waits_delay_ms:
   823                           	opt stack 0
   824                           tblptru	equ	0xFF8
   825                           tblptrh	equ	0xFF7
   826                           wreg	equ	0xFE8
   827                           status	equ	0xFD8
   828                           
   829 ;; *************** function _golay *****************
   830 ;; Defined at:
   831 ;;		line 13 in file "easat2_golay_CRCGcod.c"
   832 ;; Parameters:    Size  Location     Type
   833 ;;  cw              4   32[COMRAM] unsigned long 
   834 ;; Auto vars:     Size  Location     Type
   835 ;;  c               4   40[COMRAM] unsigned long 
   836 ;;  i               2   44[COMRAM] int 
   837 ;; Return value:  Size  Location     Type
   838 ;;                  4   32[COMRAM] unsigned long 
   839 ;; Registers used:
   840 ;;		wreg, status,2, status,0
   841 ;; Tracked objects:
   842 ;;		On entry : 0/0
   843 ;;		On exit  : 0/0
   844 ;;		Unchanged: 0/0
   845 ;; Data sizes:     COMRAM   BANK0   BANK1   BANK2   BANK3   BANK4   BANK5
   846 ;;      Params:         4       0       0       0       0       0       0
   847 ;;      Locals:         6       0       0       0       0       0       0
   848 ;;      Temps:          4       0       0       0       0       0       0
   849 ;;      Totals:        14       0       0       0       0       0       0
   850 ;;Total ram usage:       14 bytes
   851 ;; Hardware stack levels used:    1
   852 ;; Hardware stack levels required when called:    2
   853 ;; This function calls:
   854 ;;		Nothing
   855 ;; This function is called by:
   856 ;;		_main_loop
   857 ;; This function uses a non-reentrant model
   858 ;;
   859                           
   860                           	psect	text6
   861  000864                     __ptext6:
   862                           	opt stack 0
   863  000864                     _golay:
   864                           	opt stack 27
   865                           
   866                           ;easat2_golay_CRCGcod.c: 18: int i;
   867                           ;easat2_golay_CRCGcod.c: 19: unsigned long c;
   868                           ;easat2_golay_CRCGcod.c: 20: cw&=0xfffl;
   869                           
   870                           ;incstack = 0
   871  000864  0EFF               	movlw	255
   872  000866  1621               	andwf	golay@cw,f,c
   873  000868  0E0F               	movlw	15
   874  00086A  1622               	andwf	golay@cw+1,f,c
   875  00086C  0E00               	movlw	0
   876  00086E  1623               	andwf	golay@cw+2,f,c
   877  000870  0E00               	movlw	0
   878  000872  1624               	andwf	golay@cw+3,f,c
   879                           
   880                           ;easat2_golay_CRCGcod.c: 21: c=cw;
   881  000874  C021  F029         	movff	golay@cw,golay@c
   882  000878  C022  F02A         	movff	golay@cw+1,golay@c+1
   883  00087C  C023  F02B         	movff	golay@cw+2,golay@c+2
   884  000880  C024  F02C         	movff	golay@cw+3,golay@c+3
   885                           
   886                           ;easat2_golay_CRCGcod.c: 22: for (i=1; i<=12; i++)
   887  000884  0E00               	movlw	0
   888  000886  6E2E               	movwf	golay@i+1,c
   889  000888  0E01               	movlw	1
   890  00088A  6E2D               	movwf	golay@i,c
   891  00088C                     l1308:
   892  00088C  BE2E               	btfsc	golay@i+1,7,c
   893  00088E  D006               	goto	l167
   894  000890  502E               	movf	golay@i+1,w,c
   895  000892  E116               	bnz	l1318
   896  000894  0E0D               	movlw	13
   897  000896  5C2D               	subwf	golay@i,w,c
   898  000898  B0D8               	btfsc	status,0,c
   899  00089A  D012               	goto	l1318
   900  00089C                     l167:
   901                           
   902                           ;easat2_golay_CRCGcod.c: 23: {
   903                           ;easat2_golay_CRCGcod.c: 24: if (cw & 1)
   904  00089C  A021               	btfss	golay@cw,0,c
   905  00089E  D008               	goto	l1314
   906                           
   907                           ;easat2_golay_CRCGcod.c: 25: cw^=0xAE3;
   908  0008A0  0EE3               	movlw	227
   909  0008A2  1A21               	xorwf	golay@cw,f,c
   910  0008A4  0E0A               	movlw	10
   911  0008A6  1A22               	xorwf	golay@cw+1,f,c
   912  0008A8  0E00               	movlw	0
   913  0008AA  1A23               	xorwf	golay@cw+2,f,c
   914  0008AC  0E00               	movlw	0
   915  0008AE  1A24               	xorwf	golay@cw+3,f,c
   916  0008B0                     l1314:
   917                           
   918                           ;easat2_golay_CRCGcod.c: 26: cw>>=1;
   919  0008B0  90D8               	bcf	status,0,c
   920  0008B2  3224               	rrcf	golay@cw+3,f,c
   921  0008B4  3223               	rrcf	golay@cw+2,f,c
   922  0008B6  3222               	rrcf	golay@cw+1,f,c
   923  0008B8  3221               	rrcf	golay@cw,f,c
   924  0008BA  4A2D               	infsnz	golay@i,f,c
   925  0008BC  2A2E               	incf	golay@i+1,f,c
   926  0008BE  D7E6               	goto	l1308
   927  0008C0                     l1318:
   928                           
   929                           ;easat2_golay_CRCGcod.c: 27: }
   930                           ;easat2_golay_CRCGcod.c: 28: return((cw<<12)|c);
   931  0008C0  C021  F025         	movff	golay@cw,??_golay
   932  0008C4  C022  F026         	movff	golay@cw+1,??_golay+1
   933  0008C8  C023  F027         	movff	golay@cw+2,??_golay+2
   934  0008CC  C024  F028         	movff	golay@cw+3,??_golay+3
   935  0008D0  0E0C               	movlw	12
   936  0008D2                     u575:
   937  0008D2  90D8               	bcf	status,0,c
   938  0008D4  3625               	rlcf	??_golay,f,c
   939  0008D6  3626               	rlcf	??_golay+1,f,c
   940  0008D8  3627               	rlcf	??_golay+2,f,c
   941  0008DA  3628               	rlcf	??_golay+3,f,c
   942  0008DC  2EE8               	decfsz	wreg,f,c
   943  0008DE  D7F9               	goto	u575
   944  0008E0  5029               	movf	golay@c,w,c
   945  0008E2  1025               	iorwf	??_golay,w,c
   946  0008E4  6E21               	movwf	?_golay,c
   947  0008E6  502A               	movf	golay@c+1,w,c
   948  0008E8  1026               	iorwf	??_golay+1,w,c
   949  0008EA  6E22               	movwf	?_golay+1,c
   950  0008EC  502B               	movf	golay@c+2,w,c
   951  0008EE  1027               	iorwf	??_golay+2,w,c
   952  0008F0  6E23               	movwf	?_golay+2,c
   953  0008F2  502C               	movf	golay@c+3,w,c
   954  0008F4  1028               	iorwf	??_golay+3,w,c
   955  0008F6  6E24               	movwf	?_golay+3,c
   956  0008F8  0012               	return	
   957  0008FA                     __end_of_golay:
   958                           	opt stack 0
   959                           tblptru	equ	0xFF8
   960                           tblptrh	equ	0xFF7
   961                           wreg	equ	0xFE8
   962                           status	equ	0xFD8
   963                           
   964 ;; *************** function _init_initialize *****************
   965 ;; Defined at:
   966 ;;		line 17 in file "easat2_ask_init_initialize.c"
   967 ;; Parameters:    Size  Location     Type
   968 ;;		None
   969 ;; Auto vars:     Size  Location     Type
   970 ;;		None
   971 ;; Return value:  Size  Location     Type
   972 ;;                  1    wreg      void 
   973 ;; Registers used:
   974 ;;		wreg, status,2, cstack
   975 ;; Tracked objects:
   976 ;;		On entry : 0/0
   977 ;;		On exit  : 0/0
   978 ;;		Unchanged: 0/0
   979 ;; Data sizes:     COMRAM   BANK0   BANK1   BANK2   BANK3   BANK4   BANK5
   980 ;;      Params:         0       0       0       0       0       0       0
   981 ;;      Locals:         0       0       0       0       0       0       0
   982 ;;      Temps:          0       0       0       0       0       0       0
   983 ;;      Totals:         0       0       0       0       0       0       0
   984 ;;Total ram usage:        0 bytes
   985 ;; Hardware stack levels used:    1
   986 ;; Hardware stack levels required when called:    3
   987 ;; This function calls:
   988 ;;		_init_io_initialize
   989 ;;		_init_timer1_initialize
   990 ;;		_init_timer2_initialize
   991 ;;		_init_watchdogs_initialize
   992 ;; This function is called by:
   993 ;;		_main
   994 ;; This function uses a non-reentrant model
   995 ;;
   996                           
   997                           	psect	text7
   998  000A60                     __ptext7:
   999                           	opt stack 0
  1000  000A60                     _init_initialize:
  1001                           	opt stack 27
  1002                           
  1003                           ;easat2_ask_init_initialize.c: 20: init_watchdogs_initialize();
  1004                           
  1005                           ;incstack = 0
  1006  000A60  EC3F  F005         	call	_init_watchdogs_initialize	;wreg free
  1007                           
  1008                           ;easat2_ask_init_initialize.c: 23: init_io_initialize();
  1009  000A64  EC76  F003         	call	_init_io_initialize	;wreg free
  1010                           
  1011                           ;easat2_ask_init_initialize.c: 26: init_timer1_initialize();
  1012  000A68  EC05  F005         	call	_init_timer1_initialize	;wreg free
  1013                           
  1014                           ;easat2_ask_init_initialize.c: 27: init_timer2_initialize();
  1015  000A6C  EC18  F005         	call	_init_timer2_initialize	;wreg free
  1016  000A70  0012               	return		;funcret
  1017  000A72                     __end_of_init_initialize:
  1018                           	opt stack 0
  1019                           tblptru	equ	0xFF8
  1020                           tblptrh	equ	0xFF7
  1021                           wreg	equ	0xFE8
  1022                           status	equ	0xFD8
  1023                           
  1024 ;; *************** function _init_watchdogs_initialize *****************
  1025 ;; Defined at:
  1026 ;;		line 32 in file "easat2_ask_init_initialize.c"
  1027 ;; Parameters:    Size  Location     Type
  1028 ;;		None
  1029 ;; Auto vars:     Size  Location     Type
  1030 ;;		None
  1031 ;; Return value:  Size  Location     Type
  1032 ;;                  1    wreg      void 
  1033 ;; Registers used:
  1034 ;;		None
  1035 ;; Tracked objects:
  1036 ;;		On entry : 0/0
  1037 ;;		On exit  : 0/0
  1038 ;;		Unchanged: 0/0
  1039 ;; Data sizes:     COMRAM   BANK0   BANK1   BANK2   BANK3   BANK4   BANK5
  1040 ;;      Params:         0       0       0       0       0       0       0
  1041 ;;      Locals:         0       0       0       0       0       0       0
  1042 ;;      Temps:          0       0       0       0       0       0       0
  1043 ;;      Totals:         0       0       0       0       0       0       0
  1044 ;;Total ram usage:        0 bytes
  1045 ;; Hardware stack levels used:    1
  1046 ;; Hardware stack levels required when called:    2
  1047 ;; This function calls:
  1048 ;;		Nothing
  1049 ;; This function is called by:
  1050 ;;		_init_initialize
  1051 ;; This function uses a non-reentrant model
  1052 ;;
  1053                           
  1054                           	psect	text8
  1055  000A7E                     __ptext8:
  1056                           	opt stack 0
  1057  000A7E                     _init_watchdogs_initialize:
  1058                           	opt stack 27
  1059                           
  1060                           ;incstack = 0
  1061  000A7E  0004               	clrwdt		;# 
  1062  000A80  0012               	return		;funcret
  1063  000A82                     __end_of_init_watchdogs_initialize:
  1064                           	opt stack 0
  1065                           tblptru	equ	0xFF8
  1066                           tblptrh	equ	0xFF7
  1067                           wreg	equ	0xFE8
  1068                           status	equ	0xFD8
  1069                           
  1070 ;; *************** function _init_timer2_initialize *****************
  1071 ;; Defined at:
  1072 ;;		line 70 in file "easat2_ask_init_timer.c"
  1073 ;; Parameters:    Size  Location     Type
  1074 ;;		None
  1075 ;; Auto vars:     Size  Location     Type
  1076 ;;		None
  1077 ;; Return value:  Size  Location     Type
  1078 ;;                  1    wreg      void 
  1079 ;; Registers used:
  1080 ;;		wreg, status,2
  1081 ;; Tracked objects:
  1082 ;;		On entry : 0/0
  1083 ;;		On exit  : 0/0
  1084 ;;		Unchanged: 0/0
  1085 ;; Data sizes:     COMRAM   BANK0   BANK1   BANK2   BANK3   BANK4   BANK5
  1086 ;;      Params:         0       0       0       0       0       0       0
  1087 ;;      Locals:         0       0       0       0       0       0       0
  1088 ;;      Temps:          0       0       0       0       0       0       0
  1089 ;;      Totals:         0       0       0       0       0       0       0
  1090 ;;Total ram usage:        0 bytes
  1091 ;; Hardware stack levels used:    1
  1092 ;; Hardware stack levels required when called:    2
  1093 ;; This function calls:
  1094 ;;		Nothing
  1095 ;; This function is called by:
  1096 ;;		_init_initialize
  1097 ;; This function uses a non-reentrant model
  1098 ;;
  1099                           
  1100                           	psect	text9
  1101  000A30                     __ptext9:
  1102                           	opt stack 0
  1103  000A30                     _init_timer2_initialize:
  1104                           	opt stack 27
  1105                           
  1106                           ;easat2_ask_init_timer.c: 77: T2CONbits.TMR2ON = 0;
  1107                           
  1108                           ;incstack = 0
  1109  000A30  94BA               	bcf	4026,2,c	;volatile
  1110                           
  1111                           ;easat2_ask_init_timer.c: 82: T2CONbits.T2CKPS0 = 1;
  1112  000A32  80BA               	bsf	4026,0,c	;volatile
  1113                           
  1114                           ;easat2_ask_init_timer.c: 83: T2CONbits.T2CKPS1 = 0;
  1115  000A34  92BA               	bcf	4026,1,c	;volatile
  1116                           
  1117                           ;easat2_ask_init_timer.c: 86: T2CONbits.T2OUTPS = 0b0000;
  1118  000A36  96BA               	bcf	4026,3,c	;volatile
  1119  000A38  98BA               	bcf	4026,4,c	;volatile
  1120  000A3A  9ABA               	bcf	4026,5,c	;volatile
  1121  000A3C  9CBA               	bcf	4026,6,c	;volatile
  1122                           
  1123                           ;easat2_ask_init_timer.c: 93: TMR2 = 0;
  1124  000A3E  0E00               	movlw	0
  1125  000A40  6EBC               	movwf	4028,c	;volatile
  1126                           
  1127                           ;easat2_ask_init_timer.c: 96: PIE1bits.TMR2IE = 1;
  1128  000A42  829D               	bsf	3997,1,c	;volatile
  1129                           
  1130                           ;easat2_ask_init_timer.c: 97: IPR1bits.TMR2IP = 0;
  1131  000A44  929F               	bcf	3999,1,c	;volatile
  1132                           
  1133                           ;easat2_ask_init_timer.c: 98: PIR1bits.TMR2IF = 0;
  1134  000A46  929E               	bcf	3998,1,c	;volatile
  1135  000A48  0012               	return		;funcret
  1136  000A4A                     __end_of_init_timer2_initialize:
  1137                           	opt stack 0
  1138                           tblptru	equ	0xFF8
  1139                           tblptrh	equ	0xFF7
  1140                           wreg	equ	0xFE8
  1141                           status	equ	0xFD8
  1142                           
  1143 ;; *************** function _init_timer1_initialize *****************
  1144 ;; Defined at:
  1145 ;;		line 17 in file "easat2_ask_init_timer.c"
  1146 ;; Parameters:    Size  Location     Type
  1147 ;;		None
  1148 ;; Auto vars:     Size  Location     Type
  1149 ;;		None
  1150 ;; Return value:  Size  Location     Type
  1151 ;;                  1    wreg      void 
  1152 ;; Registers used:
  1153 ;;		wreg, status,2
  1154 ;; Tracked objects:
  1155 ;;		On entry : 0/0
  1156 ;;		On exit  : 0/0
  1157 ;;		Unchanged: 0/0
  1158 ;; Data sizes:     COMRAM   BANK0   BANK1   BANK2   BANK3   BANK4   BANK5
  1159 ;;      Params:         0       0       0       0       0       0       0
  1160 ;;      Locals:         0       0       0       0       0       0       0
  1161 ;;      Temps:          0       0       0       0       0       0       0
  1162 ;;      Totals:         0       0       0       0       0       0       0
  1163 ;;Total ram usage:        0 bytes
  1164 ;; Hardware stack levels used:    1
  1165 ;; Hardware stack levels required when called:    2
  1166 ;; This function calls:
  1167 ;;		Nothing
  1168 ;; This function is called by:
  1169 ;;		_init_initialize
  1170 ;; This function uses a non-reentrant model
  1171 ;;
  1172                           
  1173                           	psect	text10
  1174  000A0A                     __ptext10:
  1175                           	opt stack 0
  1176  000A0A                     _init_timer1_initialize:
  1177                           	opt stack 27
  1178                           
  1179                           ;easat2_ask_init_timer.c: 30: RCONbits.IPEN = 1;
  1180                           
  1181                           ;incstack = 0
  1182  000A0A  8ED0               	bsf	4048,7,c	;volatile
  1183                           
  1184                           ;easat2_ask_init_timer.c: 34: T1CONbits.TMR1ON = 0;
  1185  000A0C  90CD               	bcf	4045,0,c	;volatile
  1186                           
  1187                           ;easat2_ask_init_timer.c: 37: T1CONbits.TMR1CS0 = 0;
  1188  000A0E  9CCD               	bcf	4045,6,c	;volatile
  1189                           
  1190                           ;easat2_ask_init_timer.c: 38: T1CONbits.TMR1CS1 = 0;
  1191  000A10  9ECD               	bcf	4045,7,c	;volatile
  1192                           
  1193                           ;easat2_ask_init_timer.c: 41: T1CONbits.T1CKPS1 = 0;
  1194  000A12  9ACD               	bcf	4045,5,c	;volatile
  1195                           
  1196                           ;easat2_ask_init_timer.c: 42: T1CONbits.T1CKPS0 = 0;
  1197  000A14  98CD               	bcf	4045,4,c	;volatile
  1198                           
  1199                           ;easat2_ask_init_timer.c: 45: T1CONbits.T1OSCEN = 0;
  1200  000A16  96CD               	bcf	4045,3,c	;volatile
  1201                           
  1202                           ;easat2_ask_init_timer.c: 48: T1CONbits.RD16 = 1;
  1203  000A18  82CD               	bsf	4045,1,c	;volatile
  1204                           
  1205                           ;easat2_ask_init_timer.c: 51: TMR1H = 0xEC;
  1206  000A1A  0EEC               	movlw	236
  1207  000A1C  6ECF               	movwf	4047,c	;volatile
  1208                           
  1209                           ;easat2_ask_init_timer.c: 52: TMR1L = 0x77 ; 60535;
  1210  000A1E  0E77               	movlw	119
  1211  000A20  6ECE               	movwf	4046,c	;volatile
  1212                           
  1213                           ;easat2_ask_init_timer.c: 55: PIE1bits.TMR1IE = 1;
  1214  000A22  809D               	bsf	3997,0,c	;volatile
  1215                           
  1216                           ;easat2_ask_init_timer.c: 56: IPR1bits.TMR1IP = 1;
  1217  000A24  809F               	bsf	3999,0,c	;volatile
  1218                           
  1219                           ;easat2_ask_init_timer.c: 57: PIR1bits.TMR1IF = 0;
  1220  000A26  909E               	bcf	3998,0,c	;volatile
  1221                           
  1222                           ;easat2_ask_init_timer.c: 59: T1CONbits.TMR1ON = 1;
  1223  000A28  80CD               	bsf	4045,0,c	;volatile
  1224                           
  1225                           ;easat2_ask_init_timer.c: 61: INTCONbits.PEIE = 0;
  1226  000A2A  9CF2               	bcf	intcon,6,c	;volatile
  1227                           
  1228                           ;easat2_ask_init_timer.c: 62: INTCONbits.GIE = 1;
  1229  000A2C  8EF2               	bsf	intcon,7,c	;volatile
  1230  000A2E  0012               	return		;funcret
  1231  000A30                     __end_of_init_timer1_initialize:
  1232                           	opt stack 0
  1233                           tblptru	equ	0xFF8
  1234                           tblptrh	equ	0xFF7
  1235                           intcon	equ	0xFF2
  1236                           wreg	equ	0xFE8
  1237                           status	equ	0xFD8
  1238                           
  1239 ;; *************** function _init_io_initialize *****************
  1240 ;; Defined at:
  1241 ;;		line 43 in file "easat2_ask_init_initialize.c"
  1242 ;; Parameters:    Size  Location     Type
  1243 ;;		None
  1244 ;; Auto vars:     Size  Location     Type
  1245 ;;		None
  1246 ;; Return value:  Size  Location     Type
  1247 ;;                  1    wreg      void 
  1248 ;; Registers used:
  1249 ;;		wreg, status,2
  1250 ;; Tracked objects:
  1251 ;;		On entry : 0/0
  1252 ;;		On exit  : 0/0
  1253 ;;		Unchanged: 0/0
  1254 ;; Data sizes:     COMRAM   BANK0   BANK1   BANK2   BANK3   BANK4   BANK5
  1255 ;;      Params:         0       0       0       0       0       0       0
  1256 ;;      Locals:         0       0       0       0       0       0       0
  1257 ;;      Temps:          0       0       0       0       0       0       0
  1258 ;;      Totals:         0       0       0       0       0       0       0
  1259 ;;Total ram usage:        0 bytes
  1260 ;; Hardware stack levels used:    1
  1261 ;; Hardware stack levels required when called:    2
  1262 ;; This function calls:
  1263 ;;		Nothing
  1264 ;; This function is called by:
  1265 ;;		_init_initialize
  1266 ;; This function uses a non-reentrant model
  1267 ;;
  1268                           
  1269                           	psect	text11
  1270  0006EC                     __ptext11:
  1271                           	opt stack 0
  1272  0006EC                     _init_io_initialize:
  1273                           	opt stack 27
  1274                           
  1275                           ;easat2_ask_init_initialize.c: 52: VREFCON0bits.FVREN = 1;
  1276                           
  1277                           ;incstack = 0
  1278  0006EC  010F               	movlb	15	; () banked
  1279  0006EE  8F42               	bsf	66,7,b	;volatile
  1280                           
  1281                           ;easat2_ask_init_initialize.c: 53: VREFCON0bits.FVRS0 = 0;
  1282  0006F0  010F               	movlb	15	; () banked
  1283  0006F2  9942               	bcf	66,4,b	;volatile
  1284                           
  1285                           ;easat2_ask_init_initialize.c: 54: VREFCON0bits.FVRS1 = 1;
  1286  0006F4  010F               	movlb	15	; () banked
  1287  0006F6  8B42               	bsf	66,5,b	;volatile
  1288                           
  1289                           ;easat2_ask_init_initialize.c: 56: VREFCON0bits.FVRST = 1;
  1290  0006F8  010F               	movlb	15	; () banked
  1291  0006FA  8D42               	bsf	66,6,b	;volatile
  1292                           
  1293                           ; BSR set to: 15
  1294                           ;easat2_ask_init_initialize.c: 61: ADCON1 = 0x08;
  1295  0006FC  0E08               	movlw	8
  1296  0006FE  6EC1               	movwf	4033,c	;volatile
  1297                           
  1298                           ;easat2_ask_init_initialize.c: 62: ADCON2 = 0xAF;
  1299  000700  0EAF               	movlw	175
  1300  000702  6EC0               	movwf	4032,c	;volatile
  1301                           
  1302                           ; BSR set to: 15
  1303                           ;easat2_ask_init_initialize.c: 66: TRISAbits.TRISA0 = 1;
  1304  000704  8092               	bsf	3986,0,c	;volatile
  1305                           
  1306                           ; BSR set to: 15
  1307                           ;easat2_ask_init_initialize.c: 67: TRISAbits.TRISA1 = 1;
  1308  000706  8292               	bsf	3986,1,c	;volatile
  1309                           
  1310                           ; BSR set to: 15
  1311                           ;easat2_ask_init_initialize.c: 68: TRISAbits.TRISA2 = 0;
  1312  000708  9492               	bcf	3986,2,c	;volatile
  1313                           
  1314                           ; BSR set to: 15
  1315                           ;easat2_ask_init_initialize.c: 69: TRISAbits.TRISA3 = 1;
  1316  00070A  8692               	bsf	3986,3,c	;volatile
  1317                           
  1318                           ; BSR set to: 15
  1319                           ;easat2_ask_init_initialize.c: 70: TRISAbits.TRISA4 = 1;
  1320  00070C  8892               	bsf	3986,4,c	;volatile
  1321                           
  1322                           ; BSR set to: 15
  1323                           ;easat2_ask_init_initialize.c: 71: TRISAbits.TRISA5 = 1;
  1324  00070E  8A92               	bsf	3986,5,c	;volatile
  1325                           
  1326                           ; BSR set to: 15
  1327                           ;easat2_ask_init_initialize.c: 78: ANSELAbits.ANSA0 = 1;
  1328  000710  010F               	movlb	15	; () banked
  1329  000712  8138               	bsf	56,0,b	;volatile
  1330                           
  1331                           ; BSR set to: 15
  1332                           ;easat2_ask_init_initialize.c: 79: ANSELAbits.ANSA1 = 1;
  1333  000714  010F               	movlb	15	; () banked
  1334  000716  8338               	bsf	56,1,b	;volatile
  1335                           
  1336                           ; BSR set to: 15
  1337                           ;easat2_ask_init_initialize.c: 80: ANSELAbits.ANSA2 = 1;
  1338  000718  010F               	movlb	15	; () banked
  1339  00071A  8538               	bsf	56,2,b	;volatile
  1340                           
  1341                           ; BSR set to: 15
  1342                           ;easat2_ask_init_initialize.c: 81: ANSELAbits.ANSA3 = 0;
  1343  00071C  010F               	movlb	15	; () banked
  1344  00071E  9738               	bcf	56,3,b	;volatile
  1345                           
  1346                           ; BSR set to: 15
  1347                           ;easat2_ask_init_initialize.c: 83: ANSELAbits.ANSA5 = 1;
  1348  000720  010F               	movlb	15	; () banked
  1349  000722  8B38               	bsf	56,5,b	;volatile
  1350                           
  1351                           ; BSR set to: 15
  1352                           ;easat2_ask_init_initialize.c: 87: LATAbits.LATA0 = 0;
  1353  000724  9089               	bcf	3977,0,c	;volatile
  1354                           
  1355                           ; BSR set to: 15
  1356                           ;easat2_ask_init_initialize.c: 88: LATAbits.LATA1 = 0;
  1357  000726  9289               	bcf	3977,1,c	;volatile
  1358                           
  1359                           ; BSR set to: 15
  1360                           ;easat2_ask_init_initialize.c: 89: LATAbits.LATA2 = 0;
  1361  000728  9489               	bcf	3977,2,c	;volatile
  1362                           
  1363                           ; BSR set to: 15
  1364                           ;easat2_ask_init_initialize.c: 90: LATAbits.LATA3 = 0;
  1365  00072A  9689               	bcf	3977,3,c	;volatile
  1366                           
  1367                           ; BSR set to: 15
  1368                           ;easat2_ask_init_initialize.c: 91: LATAbits.LATA4 = 0;
  1369  00072C  9889               	bcf	3977,4,c	;volatile
  1370                           
  1371                           ; BSR set to: 15
  1372                           ;easat2_ask_init_initialize.c: 92: LATAbits.LATA5 = 0;
  1373  00072E  9A89               	bcf	3977,5,c	;volatile
  1374                           
  1375                           ;easat2_ask_init_initialize.c: 100: WPUB = 0b00000000;
  1376  000730  0E00               	movlw	0
  1377  000732  6E61               	movwf	3937,c	;volatile
  1378                           
  1379                           ; BSR set to: 15
  1380                           ;easat2_ask_init_initialize.c: 101: RBPU = 0b11111111;
  1381  000734  8EF1               	bsf	intcon2,7,c	;volatile
  1382                           
  1383                           ; BSR set to: 15
  1384                           ;easat2_ask_init_initialize.c: 105: TRISBbits.TRISB0 = 1;
  1385  000736  8093               	bsf	3987,0,c	;volatile
  1386                           
  1387                           ; BSR set to: 15
  1388                           ;easat2_ask_init_initialize.c: 106: TRISBbits.TRISB1 = 0;
  1389  000738  9293               	bcf	3987,1,c	;volatile
  1390                           
  1391                           ; BSR set to: 15
  1392                           ;easat2_ask_init_initialize.c: 107: TRISBbits.TRISB2 = 0;
  1393  00073A  9493               	bcf	3987,2,c	;volatile
  1394                           
  1395                           ; BSR set to: 15
  1396                           ;easat2_ask_init_initialize.c: 108: TRISBbits.TRISB3 = 0;
  1397  00073C  9693               	bcf	3987,3,c	;volatile
  1398                           
  1399                           ; BSR set to: 15
  1400                           ;easat2_ask_init_initialize.c: 109: TRISBbits.TRISB4 = 0;
  1401  00073E  9893               	bcf	3987,4,c	;volatile
  1402                           
  1403                           ; BSR set to: 15
  1404                           ;easat2_ask_init_initialize.c: 110: TRISBbits.TRISB5 = 0;
  1405  000740  9A93               	bcf	3987,5,c	;volatile
  1406                           
  1407                           ; BSR set to: 15
  1408                           ;easat2_ask_init_initialize.c: 111: TRISBbits.TRISB6 = 0;
  1409  000742  9C93               	bcf	3987,6,c	;volatile
  1410                           
  1411                           ; BSR set to: 15
  1412                           ;easat2_ask_init_initialize.c: 112: TRISBbits.TRISB7 = 0;
  1413  000744  9E93               	bcf	3987,7,c	;volatile
  1414                           
  1415                           ; BSR set to: 15
  1416                           ;easat2_ask_init_initialize.c: 116: ANSELBbits.ANSB0 = 1;
  1417  000746  010F               	movlb	15	; () banked
  1418  000748  8139               	bsf	57,0,b	;volatile
  1419                           
  1420                           ; BSR set to: 15
  1421                           ;easat2_ask_init_initialize.c: 117: ANSELBbits.ANSB1 = 0;
  1422  00074A  010F               	movlb	15	; () banked
  1423  00074C  9339               	bcf	57,1,b	;volatile
  1424                           
  1425                           ; BSR set to: 15
  1426                           ;easat2_ask_init_initialize.c: 118: ANSELBbits.ANSB2 = 0;
  1427  00074E  010F               	movlb	15	; () banked
  1428  000750  9539               	bcf	57,2,b	;volatile
  1429                           
  1430                           ; BSR set to: 15
  1431                           ;easat2_ask_init_initialize.c: 119: ANSELBbits.ANSB3 = 0;
  1432  000752  010F               	movlb	15	; () banked
  1433  000754  9739               	bcf	57,3,b	;volatile
  1434                           
  1435                           ; BSR set to: 15
  1436                           ;easat2_ask_init_initialize.c: 121: ANSELBbits.ANSB5 = 0;
  1437  000756  010F               	movlb	15	; () banked
  1438  000758  9B39               	bcf	57,5,b	;volatile
  1439                           
  1440                           ; BSR set to: 15
  1441                           ;easat2_ask_init_initialize.c: 125: LATBbits.LATB0 = 0;
  1442  00075A  908A               	bcf	3978,0,c	;volatile
  1443                           
  1444                           ; BSR set to: 15
  1445                           ;easat2_ask_init_initialize.c: 126: LATBbits.LATB1 = 0;
  1446  00075C  928A               	bcf	3978,1,c	;volatile
  1447                           
  1448                           ; BSR set to: 15
  1449                           ;easat2_ask_init_initialize.c: 127: LATBbits.LATB2 = 0;
  1450  00075E  948A               	bcf	3978,2,c	;volatile
  1451                           
  1452                           ; BSR set to: 15
  1453                           ;easat2_ask_init_initialize.c: 128: LATBbits.LATB3 = 0;
  1454  000760  968A               	bcf	3978,3,c	;volatile
  1455                           
  1456                           ; BSR set to: 15
  1457                           ;easat2_ask_init_initialize.c: 129: LATBbits.LATB4 = 0;
  1458  000762  988A               	bcf	3978,4,c	;volatile
  1459                           
  1460                           ; BSR set to: 15
  1461                           ;easat2_ask_init_initialize.c: 130: LATBbits.LATB5 = 0;
  1462  000764  9A8A               	bcf	3978,5,c	;volatile
  1463                           
  1464                           ; BSR set to: 15
  1465                           ;easat2_ask_init_initialize.c: 134: TRISDbits.TRISD0 = 0;
  1466  000766  9095               	bcf	3989,0,c	;volatile
  1467                           
  1468                           ; BSR set to: 15
  1469                           ;easat2_ask_init_initialize.c: 135: TRISDbits.TRISD1 = 0;
  1470  000768  9295               	bcf	3989,1,c	;volatile
  1471                           
  1472                           ; BSR set to: 15
  1473                           ;easat2_ask_init_initialize.c: 136: TRISDbits.TRISD2 = 0;
  1474  00076A  9495               	bcf	3989,2,c	;volatile
  1475                           
  1476                           ; BSR set to: 15
  1477                           ;easat2_ask_init_initialize.c: 137: TRISDbits.TRISD3 = 0;
  1478  00076C  9695               	bcf	3989,3,c	;volatile
  1479                           
  1480                           ; BSR set to: 15
  1481                           ;easat2_ask_init_initialize.c: 138: TRISDbits.TRISD4 = 0;
  1482  00076E  9895               	bcf	3989,4,c	;volatile
  1483                           
  1484                           ; BSR set to: 15
  1485                           ;easat2_ask_init_initialize.c: 139: TRISDbits.TRISD5 = 0;
  1486  000770  9A95               	bcf	3989,5,c	;volatile
  1487                           
  1488                           ; BSR set to: 15
  1489                           ;easat2_ask_init_initialize.c: 140: TRISDbits.TRISD6 = 0;
  1490  000772  9C95               	bcf	3989,6,c	;volatile
  1491                           
  1492                           ; BSR set to: 15
  1493                           ;easat2_ask_init_initialize.c: 141: TRISDbits.TRISD7 = 0;
  1494  000774  9E95               	bcf	3989,7,c	;volatile
  1495                           
  1496                           ; BSR set to: 15
  1497                           ;easat2_ask_init_initialize.c: 145: ANSELDbits.ANSD0 = 0;
  1498  000776  010F               	movlb	15	; () banked
  1499  000778  913B               	bcf	59,0,b	;volatile
  1500                           
  1501                           ; BSR set to: 15
  1502                           ;easat2_ask_init_initialize.c: 146: ANSELDbits.ANSD1 = 0;
  1503  00077A  010F               	movlb	15	; () banked
  1504  00077C  933B               	bcf	59,1,b	;volatile
  1505                           
  1506                           ; BSR set to: 15
  1507                           ;easat2_ask_init_initialize.c: 147: ANSELDbits.ANSD2 = 0;
  1508  00077E  010F               	movlb	15	; () banked
  1509  000780  953B               	bcf	59,2,b	;volatile
  1510                           
  1511                           ; BSR set to: 15
  1512                           ;easat2_ask_init_initialize.c: 148: ANSELDbits.ANSD3 = 0;
  1513  000782  010F               	movlb	15	; () banked
  1514  000784  973B               	bcf	59,3,b	;volatile
  1515                           
  1516                           ; BSR set to: 15
  1517                           ;easat2_ask_init_initialize.c: 149: ANSELDbits.ANSD4 = 0;
  1518  000786  010F               	movlb	15	; () banked
  1519  000788  993B               	bcf	59,4,b	;volatile
  1520                           
  1521                           ; BSR set to: 15
  1522                           ;easat2_ask_init_initialize.c: 150: ANSELDbits.ANSD5 = 0;
  1523  00078A  010F               	movlb	15	; () banked
  1524  00078C  9B3B               	bcf	59,5,b	;volatile
  1525                           
  1526                           ; BSR set to: 15
  1527                           ;easat2_ask_init_initialize.c: 151: ANSELDbits.ANSD6 = 0;
  1528  00078E  010F               	movlb	15	; () banked
  1529  000790  9D3B               	bcf	59,6,b	;volatile
  1530                           
  1531                           ; BSR set to: 15
  1532                           ;easat2_ask_init_initialize.c: 152: ANSELDbits.ANSD7 = 0;
  1533  000792  010F               	movlb	15	; () banked
  1534  000794  9F3B               	bcf	59,7,b	;volatile
  1535                           
  1536                           ; BSR set to: 15
  1537                           ;easat2_ask_init_initialize.c: 156: LATDbits.LATD0 = 0;
  1538  000796  908C               	bcf	3980,0,c	;volatile
  1539                           
  1540                           ; BSR set to: 15
  1541                           ;easat2_ask_init_initialize.c: 157: LATDbits.LATD1 = 0;
  1542  000798  928C               	bcf	3980,1,c	;volatile
  1543                           
  1544                           ; BSR set to: 15
  1545                           ;easat2_ask_init_initialize.c: 158: LATDbits.LATD2 = 0;
  1546  00079A  948C               	bcf	3980,2,c	;volatile
  1547                           
  1548                           ; BSR set to: 15
  1549                           ;easat2_ask_init_initialize.c: 159: LATDbits.LATD3 = 0;
  1550  00079C  968C               	bcf	3980,3,c	;volatile
  1551                           
  1552                           ; BSR set to: 15
  1553                           ;easat2_ask_init_initialize.c: 160: LATDbits.LATD4 = 0;
  1554  00079E  988C               	bcf	3980,4,c	;volatile
  1555                           
  1556                           ; BSR set to: 15
  1557                           ;easat2_ask_init_initialize.c: 161: LATDbits.LATD5 = 0;
  1558  0007A0  9A8C               	bcf	3980,5,c	;volatile
  1559                           
  1560                           ; BSR set to: 15
  1561                           ;easat2_ask_init_initialize.c: 162: LATDbits.LATD6 = 0;
  1562  0007A2  9C8C               	bcf	3980,6,c	;volatile
  1563                           
  1564                           ; BSR set to: 15
  1565                           ;easat2_ask_init_initialize.c: 163: LATDbits.LATD7 = 0;
  1566  0007A4  9E8C               	bcf	3980,7,c	;volatile
  1567                           
  1568                           ; BSR set to: 15
  1569  0007A6  0012               	return		;funcret
  1570  0007A8                     __end_of_init_io_initialize:
  1571                           	opt stack 0
  1572                           tblptru	equ	0xFF8
  1573                           tblptrh	equ	0xFF7
  1574                           intcon	equ	0xFF2
  1575                           intcon2	equ	0xFF1
  1576                           wreg	equ	0xFE8
  1577                           status	equ	0xFD8
  1578                           
  1579 ;; *************** function _low_priority_int *****************
  1580 ;; Defined at:
  1581 ;;		line 73 in file "easat2_ask_func_interrupts.c"
  1582 ;; Parameters:    Size  Location     Type
  1583 ;;		None
  1584 ;; Auto vars:     Size  Location     Type
  1585 ;;		None
  1586 ;; Return value:  Size  Location     Type
  1587 ;;                  1    wreg      void 
  1588 ;; Registers used:
  1589 ;;		None
  1590 ;; Tracked objects:
  1591 ;;		On entry : 0/0
  1592 ;;		On exit  : 0/0
  1593 ;;		Unchanged: 0/0
  1594 ;; Data sizes:     COMRAM   BANK0   BANK1   BANK2   BANK3   BANK4   BANK5
  1595 ;;      Params:         0       0       0       0       0       0       0
  1596 ;;      Locals:         0       0       0       0       0       0       0
  1597 ;;      Temps:         17       0       0       0       0       0       0
  1598 ;;      Totals:        17       0       0       0       0       0       0
  1599 ;;Total ram usage:       17 bytes
  1600 ;; Hardware stack levels used:    1
  1601 ;; Hardware stack levels required when called:    1
  1602 ;; This function calls:
  1603 ;;		Nothing
  1604 ;; This function is called by:
  1605 ;;		Interrupt level 1
  1606 ;; This function uses a non-reentrant model
  1607 ;;
  1608                           
  1609                           	psect	intcodelo
  1610  000018                     __pintcodelo:
  1611                           	opt stack 0
  1612  000018                     _low_priority_int:
  1613                           	opt stack 25
  1614                           
  1615                           ; BSR set to: 15
  1616                           ;incstack = 0
  1617  000018  803E               	bsf	btemp,0,c	;set compiler interrupt flag (level 1)
  1618  00001A  CFD8 F010          	movff	status,??_low_priority_int
  1619  00001E  CFE8 F011          	movff	wreg,??_low_priority_int+1
  1620  000022  CFE0 F012          	movff	bsr,??_low_priority_int+2
  1621  000026  CFFA F013          	movff	pclath,??_low_priority_int+3
  1622  00002A  CFFB F014          	movff	pclatu,??_low_priority_int+4
  1623  00002E  CFE9 F015          	movff	fsr0l,??_low_priority_int+5
  1624  000032  CFEA F016          	movff	fsr0h,??_low_priority_int+6
  1625  000036  CFE1 F017          	movff	fsr1l,??_low_priority_int+7
  1626  00003A  CFE2 F018          	movff	fsr1h,??_low_priority_int+8
  1627  00003E  CFD9 F019          	movff	fsr2l,??_low_priority_int+9
  1628  000042  CFDA F01A          	movff	fsr2h,??_low_priority_int+10
  1629  000046  CFF3 F01B          	movff	prodl,??_low_priority_int+11
  1630  00004A  CFF4 F01C          	movff	prodh,??_low_priority_int+12
  1631  00004E  CFF6 F01D          	movff	tblptrl,??_low_priority_int+13
  1632  000052  CFF7 F01E          	movff	tblptrh,??_low_priority_int+14
  1633  000056  CFF8 F01F          	movff	tblptru,??_low_priority_int+15
  1634  00005A  CFF5 F020          	movff	tablat,??_low_priority_int+16
  1635  00005E  C020  FFF5         	movff	??_low_priority_int+16,tablat
  1636  000062  C01F  FFF8         	movff	??_low_priority_int+15,tblptru
  1637  000066  C01E  FFF7         	movff	??_low_priority_int+14,tblptrh
  1638  00006A  C01D  FFF6         	movff	??_low_priority_int+13,tblptrl
  1639  00006E  C01C  FFF4         	movff	??_low_priority_int+12,prodh
  1640  000072  C01B  FFF3         	movff	??_low_priority_int+11,prodl
  1641  000076  C01A  FFDA         	movff	??_low_priority_int+10,fsr2h
  1642  00007A  C019  FFD9         	movff	??_low_priority_int+9,fsr2l
  1643  00007E  C018  FFE2         	movff	??_low_priority_int+8,fsr1h
  1644  000082  C017  FFE1         	movff	??_low_priority_int+7,fsr1l
  1645  000086  C016  FFEA         	movff	??_low_priority_int+6,fsr0h
  1646  00008A  C015  FFE9         	movff	??_low_priority_int+5,fsr0l
  1647  00008E  C014  FFFB         	movff	??_low_priority_int+4,pclatu
  1648  000092  C013  FFFA         	movff	??_low_priority_int+3,pclath
  1649  000096  C012  FFE0         	movff	??_low_priority_int+2,bsr
  1650  00009A  C011  FFE8         	movff	??_low_priority_int+1,wreg
  1651  00009E  C010  FFD8         	movff	??_low_priority_int,status
  1652  0000A2  903E               	bcf	btemp,0,c	;clear compiler interrupt flag (level 1)
  1653  0000A4  0010               	retfie	
  1654  0000A6                     __end_of_low_priority_int:
  1655                           	opt stack 0
  1656                           pclatu	equ	0xFFB
  1657                           pclath	equ	0xFFA
  1658                           tblptru	equ	0xFF8
  1659                           tblptrh	equ	0xFF7
  1660                           tblptrl	equ	0xFF6
  1661                           tablat	equ	0xFF5
  1662                           prodh	equ	0xFF4
  1663                           prodl	equ	0xFF3
  1664                           intcon	equ	0xFF2
  1665                           intcon2	equ	0xFF1
  1666                           fsr0h	equ	0xFEA
  1667                           fsr0l	equ	0xFE9
  1668                           wreg	equ	0xFE8
  1669                           fsr1h	equ	0xFE2
  1670                           fsr1l	equ	0xFE1
  1671                           bsr	equ	0xFE0
  1672                           fsr2h	equ	0xFDA
  1673                           fsr2l	equ	0xFD9
  1674                           status	equ	0xFD8
  1675                           
  1676 ;; *************** function _high_priority_int *****************
  1677 ;; Defined at:
  1678 ;;		line 19 in file "easat2_ask_func_interrupts.c"
  1679 ;; Parameters:    Size  Location     Type
  1680 ;;		None
  1681 ;; Auto vars:     Size  Location     Type
  1682 ;;		None
  1683 ;; Return value:  Size  Location     Type
  1684 ;;                  1    wreg      void 
  1685 ;; Registers used:
  1686 ;;		wreg, status,2, status,0
  1687 ;; Tracked objects:
  1688 ;;		On entry : 0/0
  1689 ;;		On exit  : 0/0
  1690 ;;		Unchanged: 0/0
  1691 ;; Data sizes:     COMRAM   BANK0   BANK1   BANK2   BANK3   BANK4   BANK5
  1692 ;;      Params:         0       0       0       0       0       0       0
  1693 ;;      Locals:         0       0       0       0       0       0       0
  1694 ;;      Temps:         15       0       0       0       0       0       0
  1695 ;;      Totals:        15       0       0       0       0       0       0
  1696 ;;Total ram usage:       15 bytes
  1697 ;; Hardware stack levels used:    1
  1698 ;; This function calls:
  1699 ;;		Nothing
  1700 ;; This function is called by:
  1701 ;;		Interrupt level 2
  1702 ;; This function uses a non-reentrant model
  1703 ;;
  1704                           
  1705                           	psect	intcode
  1706  000008                     __pintcode:
  1707                           	opt stack 0
  1708  000008                     _high_priority_int:
  1709                           	opt stack 25
  1710                           
  1711                           ;incstack = 0
  1712  000008  823E               	bsf	btemp,1,c	;set compiler interrupt flag (level 2)
  1713  00000A  EFD4  F003         	goto	int_func
  1714                           pclatu	equ	0xFFB
  1715                           pclath	equ	0xFFA
  1716                           tblptru	equ	0xFF8
  1717                           tblptrh	equ	0xFF7
  1718                           tblptrl	equ	0xFF6
  1719                           tablat	equ	0xFF5
  1720                           prodh	equ	0xFF4
  1721                           prodl	equ	0xFF3
  1722                           intcon	equ	0xFF2
  1723                           intcon2	equ	0xFF1
  1724                           fsr0h	equ	0xFEA
  1725                           fsr0l	equ	0xFE9
  1726                           wreg	equ	0xFE8
  1727                           fsr1h	equ	0xFE2
  1728                           fsr1l	equ	0xFE1
  1729                           bsr	equ	0xFE0
  1730                           fsr2h	equ	0xFDA
  1731                           fsr2l	equ	0xFD9
  1732                           status	equ	0xFD8
  1733                           
  1734                           	psect	intcode_body
  1735  0007A8                     __pintcode_body:
  1736                           	opt stack 25
  1737  0007A8                     int_func:
  1738                           	opt stack 25
  1739  0007A8  CFFA F002          	movff	pclath,??_high_priority_int+1
  1740  0007AC  CFFB F003          	movff	pclatu,??_high_priority_int+2
  1741  0007B0  CFE9 F004          	movff	fsr0l,??_high_priority_int+3
  1742  0007B4  CFEA F005          	movff	fsr0h,??_high_priority_int+4
  1743  0007B8  CFE1 F006          	movff	fsr1l,??_high_priority_int+5
  1744  0007BC  CFE2 F007          	movff	fsr1h,??_high_priority_int+6
  1745  0007C0  CFD9 F008          	movff	fsr2l,??_high_priority_int+7
  1746  0007C4  CFDA F009          	movff	fsr2h,??_high_priority_int+8
  1747  0007C8  CFF3 F00A          	movff	prodl,??_high_priority_int+9
  1748  0007CC  CFF4 F00B          	movff	prodh,??_high_priority_int+10
  1749  0007D0  CFF6 F00C          	movff	tblptrl,??_high_priority_int+11
  1750  0007D4  CFF7 F00D          	movff	tblptrh,??_high_priority_int+12
  1751  0007D8  CFF8 F00E          	movff	tblptru,??_high_priority_int+13
  1752  0007DC  CFF5 F00F          	movff	tablat,??_high_priority_int+14
  1753                           
  1754                           ;easat2_ask_func_interrupts.c: 21: static int tmr1_interrupt_number = 0;
  1755                           ;easat2_ask_func_interrupts.c: 23: if (PIR1bits.TMR2IF) {
  1756  0007E0  A29E               	btfss	3998,1,c	;volatile
  1757  0007E2  D002               	goto	i2l13
  1758                           
  1759                           ;easat2_ask_func_interrupts.c: 27: PIR1bits.TMR2IF = 0;
  1760  0007E4  929E               	bcf	3998,1,c	;volatile
  1761                           
  1762                           ;easat2_ask_func_interrupts.c: 29: } else {
  1763  0007E6  D020               	goto	i2l17
  1764  0007E8                     i2l13:
  1765                           
  1766                           ;easat2_ask_func_interrupts.c: 33: if (PIR1bits.TMR1IF) {
  1767  0007E8  A09E               	btfss	3998,0,c	;volatile
  1768  0007EA  D01E               	goto	i2l17
  1769                           
  1770                           ;easat2_ask_func_interrupts.c: 37: TMR1H = 0xEC;
  1771  0007EC  0EEC               	movlw	236
  1772  0007EE  6ECF               	movwf	4047,c	;volatile
  1773                           
  1774                           ;easat2_ask_func_interrupts.c: 38: TMR1L = 0x77 ; 60535;
  1775  0007F0  0E77               	movlw	119
  1776  0007F2  6ECE               	movwf	4046,c	;volatile
  1777                           
  1778                           ;easat2_ask_func_interrupts.c: 40: tmr1_interrupt_number++;
  1779  0007F4  4A3C               	infsnz	high_priority_int@tmr1_interrupt_number,f,c
  1780  0007F6  2A3D               	incf	high_priority_int@tmr1_interrupt_number+1,f,c
  1781                           
  1782                           ;easat2_ask_func_interrupts.c: 44: if (tmr1_interrupt_number == 50) {
  1783  0007F8  0E32               	movlw	50
  1784  0007FA  183C               	xorwf	high_priority_int@tmr1_interrupt_number,w,c
  1785  0007FC  103D               	iorwf	high_priority_int@tmr1_interrupt_number+1,w,c
  1786  0007FE  A4D8               	btfss	status,2,c
  1787  000800  D012               	goto	i2l1192
  1788                           
  1789                           ;easat2_ask_func_interrupts.c: 47: (PORTAbits.RA2) = !(PORTAbits.RA2);
  1790  000802  B480               	btfsc	3968,2,c	;volatile
  1791  000804  D003               	goto	i2u35_40
  1792  000806  6A01               	clrf	??_high_priority_int& (0+255),c
  1793  000808  2A01               	incf	??_high_priority_int& (0+255),f,c
  1794  00080A  D001               	goto	i2u36_48
  1795  00080C                     i2u35_40:
  1796  00080C  6A01               	clrf	??_high_priority_int& (0+255),c
  1797  00080E                     i2u36_48:
  1798  00080E  4601               	rlncf	??_high_priority_int,f,c
  1799  000810  4601               	rlncf	??_high_priority_int,f,c
  1800  000812  5080               	movf	3968,w,c	;volatile
  1801  000814  1801               	xorwf	??_high_priority_int,w,c
  1802  000816  0BFB               	andlw	-5
  1803  000818  1801               	xorwf	??_high_priority_int,w,c
  1804  00081A  6E80               	movwf	3968,c	;volatile
  1805  00081C  0004               	clrwdt		;# 
  1806                           
  1807                           ;easat2_ask_func_interrupts.c: 56: tmr1_interrupt_number = 0;
  1808  00081E  0E00               	movlw	0
  1809  000820  6E3D               	movwf	high_priority_int@tmr1_interrupt_number+1,c
  1810  000822  0E00               	movlw	0
  1811  000824  6E3C               	movwf	high_priority_int@tmr1_interrupt_number,c
  1812  000826                     i2l1192:
  1813                           
  1814                           ;easat2_ask_func_interrupts.c: 58: }
  1815                           ;easat2_ask_func_interrupts.c: 63: PIR1bits.TMR1IF = 0;
  1816  000826  909E               	bcf	3998,0,c	;volatile
  1817  000828                     i2l17:
  1818  000828  C00F  FFF5         	movff	??_high_priority_int+14,tablat
  1819  00082C  C00E  FFF8         	movff	??_high_priority_int+13,tblptru
  1820  000830  C00D  FFF7         	movff	??_high_priority_int+12,tblptrh
  1821  000834  C00C  FFF6         	movff	??_high_priority_int+11,tblptrl
  1822  000838  C00B  FFF4         	movff	??_high_priority_int+10,prodh
  1823  00083C  C00A  FFF3         	movff	??_high_priority_int+9,prodl
  1824  000840  C009  FFDA         	movff	??_high_priority_int+8,fsr2h
  1825  000844  C008  FFD9         	movff	??_high_priority_int+7,fsr2l
  1826  000848  C007  FFE2         	movff	??_high_priority_int+6,fsr1h
  1827  00084C  C006  FFE1         	movff	??_high_priority_int+5,fsr1l
  1828  000850  C005  FFEA         	movff	??_high_priority_int+4,fsr0h
  1829  000854  C004  FFE9         	movff	??_high_priority_int+3,fsr0l
  1830  000858  C003  FFFB         	movff	??_high_priority_int+2,pclatu
  1831  00085C  C002  FFFA         	movff	??_high_priority_int+1,pclath
  1832  000860  923E               	bcf	btemp,1,c	;clear compiler interrupt flag (level 2)
  1833  000862  0011               	retfie		f
  1834  000864                     __end_of_high_priority_int:
  1835                           	opt stack 0
  1836                           pclatu	equ	0xFFB
  1837                           pclath	equ	0xFFA
  1838                           tblptru	equ	0xFF8
  1839                           tblptrh	equ	0xFF7
  1840                           tblptrl	equ	0xFF6
  1841                           tablat	equ	0xFF5
  1842                           prodh	equ	0xFF4
  1843                           prodl	equ	0xFF3
  1844                           intcon	equ	0xFF2
  1845                           intcon2	equ	0xFF1
  1846                           fsr0h	equ	0xFEA
  1847                           fsr0l	equ	0xFE9
  1848                           wreg	equ	0xFE8
  1849                           fsr1h	equ	0xFE2
  1850                           fsr1l	equ	0xFE1
  1851                           bsr	equ	0xFE0
  1852                           fsr2h	equ	0xFDA
  1853                           fsr2l	equ	0xFD9
  1854                           status	equ	0xFD8
  1855                           pclatu	equ	0xFFB
  1856                           pclath	equ	0xFFA
  1857                           tblptru	equ	0xFF8
  1858                           tblptrh	equ	0xFF7
  1859                           tblptrl	equ	0xFF6
  1860                           tablat	equ	0xFF5
  1861                           prodh	equ	0xFF4
  1862                           prodl	equ	0xFF3
  1863                           intcon	equ	0xFF2
  1864                           intcon2	equ	0xFF1
  1865                           fsr0h	equ	0xFEA
  1866                           fsr0l	equ	0xFE9
  1867                           wreg	equ	0xFE8
  1868                           fsr1h	equ	0xFE2
  1869                           fsr1l	equ	0xFE1
  1870                           bsr	equ	0xFE0
  1871                           fsr2h	equ	0xFDA
  1872                           fsr2l	equ	0xFD9
  1873                           status	equ	0xFD8
  1874                           
  1875                           	psect	rparam
  1876  0000                     pclatu	equ	0xFFB
  1877                           pclath	equ	0xFFA
  1878                           tblptru	equ	0xFF8
  1879                           tblptrh	equ	0xFF7
  1880                           tblptrl	equ	0xFF6
  1881                           tablat	equ	0xFF5
  1882                           prodh	equ	0xFF4
  1883                           prodl	equ	0xFF3
  1884                           intcon	equ	0xFF2
  1885                           intcon2	equ	0xFF1
  1886                           fsr0h	equ	0xFEA
  1887                           fsr0l	equ	0xFE9
  1888                           wreg	equ	0xFE8
  1889                           fsr1h	equ	0xFE2
  1890                           fsr1l	equ	0xFE1
  1891                           bsr	equ	0xFE0
  1892                           fsr2h	equ	0xFDA
  1893                           fsr2l	equ	0xFD9
  1894                           status	equ	0xFD8
  1895                           
  1896                           	psect	temp
  1897  00003E                     btemp:
  1898                           	opt stack 0
  1899  00003E                     	ds	1
  1900  0000                     int$flags	set	btemp
  1901                           pclatu	equ	0xFFB
  1902                           pclath	equ	0xFFA
  1903                           tblptru	equ	0xFF8
  1904                           tblptrh	equ	0xFF7
  1905                           tblptrl	equ	0xFF6
  1906                           tablat	equ	0xFF5
  1907                           prodh	equ	0xFF4
  1908                           prodl	equ	0xFF3
  1909                           intcon	equ	0xFF2
  1910                           intcon2	equ	0xFF1
  1911                           fsr0h	equ	0xFEA
  1912                           fsr0l	equ	0xFE9
  1913                           wreg	equ	0xFE8
  1914                           fsr1h	equ	0xFE2
  1915                           fsr1l	equ	0xFE1
  1916                           bsr	equ	0xFE0
  1917                           fsr2h	equ	0xFDA
  1918                           fsr2l	equ	0xFD9
  1919                           status	equ	0xFD8


Data Sizes:
    Strings     4
    Constant    16
    Data        0
    BSS         2
    Persistent  0
    Stack       0

Auto Spaces:
    Space          Size  Autos    Used
    COMRAM           94     59      61
    BANK0           160      0       0
    BANK1           256      0       0
    BANK2           256      0       0
    BANK3           256      0       0
    BANK4           256      0       0
    BANK5           256      0       0

Pointer List with Targets:

    None.

Critical Paths under _main in COMRAM

    _main->_main_loop
    _main_loop->_send_ask_command
    _util_waits_delay_mins->_util_waits_delay_secs
    _util_waits_delay_secs->_util_waits_delay_ms
    _send_ask_command->_util_waits_delay_ms

Critical Paths under _low_priority_int in COMRAM

    None.

Critical Paths under _high_priority_int in COMRAM

    None.

Critical Paths under _main in BANK0

    None.

Critical Paths under _low_priority_int in BANK0

    None.

Critical Paths under _high_priority_int in BANK0

    None.

Critical Paths under _main in BANK1

    None.

Critical Paths under _low_priority_int in BANK1

    None.

Critical Paths under _high_priority_int in BANK1

    None.

Critical Paths under _main in BANK2

    None.

Critical Paths under _low_priority_int in BANK2

    None.

Critical Paths under _high_priority_int in BANK2

    None.

Critical Paths under _main in BANK3

    None.

Critical Paths under _low_priority_int in BANK3

    None.

Critical Paths under _high_priority_int in BANK3

    None.

Critical Paths under _main in BANK4

    None.

Critical Paths under _low_priority_int in BANK4

    None.

Critical Paths under _high_priority_int in BANK4

    None.

Critical Paths under _main in BANK5

    None.

Critical Paths under _low_priority_int in BANK5

    None.

Critical Paths under _high_priority_int in BANK5

    None.

Call Graph Tables:

 ---------------------------------------------------------------------------------
 (Depth) Function   	        Calls       Base Space   Used Autos Params    Refs
 ---------------------------------------------------------------------------------
 (0) _main                                                 0     0      0    1349
                    _init_initialize
                          _main_loop
 ---------------------------------------------------------------------------------
 (1) _main_loop                                            8     8      0    1349
                                             51 COMRAM     8     8      0
                              _golay
                   _send_ask_command
              _util_waits_delay_mins
 ---------------------------------------------------------------------------------
 (2) _util_waits_delay_mins                                5     3      2     568
                                             44 COMRAM     5     3      2
              _util_waits_delay_secs
 ---------------------------------------------------------------------------------
 (3) _util_waits_delay_secs                                7     5      2     394
                                             37 COMRAM     7     5      2
                _util_waits_delay_ms
 ---------------------------------------------------------------------------------
 (2) _send_ask_command                                    14    10      4     532
                                             37 COMRAM    14    10      4
                _util_waits_delay_ms
 ---------------------------------------------------------------------------------
 (4) _util_waits_delay_ms                                  5     3      2     238
                                             32 COMRAM     5     3      2
 ---------------------------------------------------------------------------------
 (2) _golay                                               14    10      4     202
                                             32 COMRAM    14    10      4
 ---------------------------------------------------------------------------------
 (1) _init_initialize                                      0     0      0       0
                 _init_io_initialize
             _init_timer1_initialize
             _init_timer2_initialize
          _init_watchdogs_initialize
 ---------------------------------------------------------------------------------
 (2) _init_watchdogs_initialize                            0     0      0       0
 ---------------------------------------------------------------------------------
 (2) _init_timer2_initialize                               0     0      0       0
 ---------------------------------------------------------------------------------
 (2) _init_timer1_initialize                               0     0      0       0
 ---------------------------------------------------------------------------------
 (2) _init_io_initialize                                   0     0      0       0
 ---------------------------------------------------------------------------------
 Estimated maximum stack depth 4
 ---------------------------------------------------------------------------------
 (Depth) Function   	        Calls       Base Space   Used Autos Params    Refs
 ---------------------------------------------------------------------------------
 (5) _low_priority_int                                    17    17      0       0
                                             15 COMRAM    17    17      0
 ---------------------------------------------------------------------------------
 Estimated maximum stack depth 5
 ---------------------------------------------------------------------------------
 (Depth) Function   	        Calls       Base Space   Used Autos Params    Refs
 ---------------------------------------------------------------------------------
 (6) _high_priority_int                                   15    15      0       0
                                              0 COMRAM    15    15      0
 ---------------------------------------------------------------------------------
 Estimated maximum stack depth 6
 ---------------------------------------------------------------------------------

 Call Graph Graphs:

 _main (ROOT)
   _init_initialize
     _init_io_initialize
     _init_timer1_initialize
     _init_timer2_initialize
     _init_watchdogs_initialize
   _main_loop
     _golay
     _send_ask_command
       _util_waits_delay_ms
     _util_waits_delay_mins
       _util_waits_delay_secs
         _util_waits_delay_ms

 _low_priority_int (ROOT)

 _high_priority_int (ROOT)

 Address spaces:
Name               Size   Autos  Total    Cost      Usage
BIGRAM             5FF      0       0      16        0.0%
EEDATA             100      0       0       0        0.0%
BITBANK5           100      0       0      14        0.0%
BANK5              100      0       0      15        0.0%
BITBANK4           100      0       0      12        0.0%
BANK4              100      0       0      13        0.0%
BITBANK3           100      0       0      10        0.0%
BANK3              100      0       0      11        0.0%
BITBANK2           100      0       0       7        0.0%
BANK2              100      0       0       8        0.0%
BITBANK1           100      0       0       5        0.0%
BANK1              100      0       0       6        0.0%
BITBANK0            A0      0       0       3        0.0%
BANK0               A0      0       0       4        0.0%
BITCOMRAM           5E      0       0       0        0.0%
COMRAM              5E     3B      3D       1       64.9%
BITSFR_1             0      0       0     200        0.0%
SFR_1                0      0       0     200        0.0%
BITSFR               0      0       0     200        0.0%
SFR                  0      0       0     200        0.0%
STACK                0      0       0       2        0.0%
NULL                 0      0       0       0        0.0%
ABS                  0      0      3D       9        0.0%
DATA                 0      0      3D      17        0.0%
CODE                 0      0       0       0        0.0%


Microchip Technology PIC18 Macro Assembler V1.41 build -162212810 
Symbol Table                                                                                   Tue May 23 19:08:28 2017

                     ??_init_initialize 0021                                      bsr 000FE0  
                          __CFG_CP0$OFF 000000                            __CFG_CP1$OFF 000000  
                          __CFG_CP2$OFF 000000                            __CFG_CP3$OFF 000000  
                                   l122 06EA                                     l153 09F4  
                                   l167 089C                            __CFG_CPB$OFF 000000  
                          __CFG_CPD$OFF 000000                                     u625 066E  
                                   u626 0670                                     u645 069C  
                                   u646 069E                                     u575 08D2  
                                   u687 09EA                                     wreg 000FE8  
                          __CFG_FOSC$XT 000000                 ?_init_timer1_initialize 0001  
                          __CFG_LVP$OFF 000000                                    l1300 0998  
                                  l1314 08B0                                    l1308 088C  
                                  l1332 064E                                    l1324 062E  
                                  l1318 08C0                                    l1280 09E8  
                                  l1360 09B8                                    l1346 068C  
                                  l1338 0666                                    l1292 0982  
                                  l1364 09C8                                    l1286 096A  
                                  l1288 0972                                    l1368 091A  
                                  l1298 0994                                    STR_1 0613  
                                  STR_2 0611                                    i2l13 07E8  
                                  i2l17 0828                                    _RBPU 007F8F  
                                  _TMR2 000FBC                                    _WPUB 000F61  
                          __CFG_WRTC$ON 000000                            __CFG_WRTD$ON 000000  
                                  _main 0A72                                    fsr0h 000FEA  
                                  fsr1h 000FE2                                    fsr2h 000FDA  
                                  fsr0l 000FE9                                    fsr1l 000FE1  
                                  fsr2l 000FD9                                    btemp 003E  
                         __CFG_BORV$190 000000                                    prodh 000FF4  
                                  prodl 000FF3                                    start 00A6  
                         __CFG_IESO$OFF 000000                 ?_init_timer2_initialize 0001  
                          ___param_bank 000000                       send_ask_command@i 002E  
                                 ?_main 0001                       ?_low_priority_int 0001  
                         __CFG_WDTEN$ON 000000          __end_of_init_timer1_initialize 0A30  
                                 _TMR1H 000FCF                                   _TMR1L 000FCE  
                    ??_low_priority_int 0010                           __CFG_WRT0$OFF 000000  
                         __CFG_WRT1$OFF 000000                           __CFG_WRT2$OFF 000000  
                         __CFG_WRT3$OFF 000000                          __CFG_EBTR0$OFF 000000  
                        __CFG_FCMEN$OFF 000000                          __CFG_EBTR1$OFF 000000  
                        __CFG_EBTR2$OFF 000000                          __CFG_EBTR3$OFF 000000  
                         __CFG_WRTB$OFF 000000                          __CFG_EBTRB$OFF 000000  
                                 _golay 0864                      __CFG_MCLRE$EXTMCLR 000000  
             util_waits_delay_secs@secs 0026                          __CFG_BOREN$OFF 000000  
                                 pclath 000FFA                                   tablat 000FF5  
                main_loop@golay_command 0038                                   status 000FD8  
           __end_of_util_waits_delay_ms 0A0A          __end_of_init_timer2_initialize 0A4A  
                       __initialization 0A4A                            __end_of_main 0A7E  
            ?_init_watchdogs_initialize 0001                                  ??_main 003C  
                         __activetblptr 000001                                  _ADCON1 000FC1  
                                _ADCON2 000FC0                                  ?_golay 0021  
              __end_of_send_ask_command 06EC                                  i2l1192 0826  
           __size_of_init_io_initialize 00BC                          __CFG_XINST$OFF 000000  
               ??_util_waits_delay_mins 002F                 ??_util_waits_delay_secs 0028  
                        __CFG_STVREN$ON 000000                                  golay@c 0029  
                                golay@i 002D                            __mediumconst 0000  
                                tblptrh 000FF7                                  tblptrl 000FF6  
                                tblptru 000FF8                         __CFG_HFOFST$OFF 000000  
                       _init_initialize 0A60                              __accesstop 0060  
               __end_of__initialization 0A4E                         __CFG_PBADEN$OFF 000000  
                         ___rparam_used 000001                          __pcstackCOMRAM 0001  
                         __end_of_golay 08FA                                 ??_golay 0025  
high_priority_int@tmr1_interrupt_number 003C                      __size_of_main_loop 0066  
                       __CFG_PLLCFG$OFF 000000                      __CFG_CCP2MX$PORTC1 000000  
                    __CFG_CCP3MX$PORTB5 000000                       _high_priority_int 0008  
               send_ask_command@command 0026                      ?_high_priority_int 0001  
               __end_of_init_initialize 0A72                                 i2u35_40 080C  
                               i2u36_48 080E                     ??_high_priority_int 0001  
             __size_of_low_priority_int 008E                    util_waits_delay_ms@i 0024  
          util_waits_delay_mins@minutes 002D                         __CFG_PWRTEN$OFF 000000  
                               __Hparam 0000                                 __Lparam 0000  
             __end_of_high_priority_int 0864                            __psmallconst 0600  
                     __end_of_main_loop 0960                                 __pcinit 0A4A  
           ??_init_watchdogs_initialize 0021                                 __ramtop 0600  
                               __ptext0 0A72                                 __ptext1 08FA  
                               __ptext2 09AE                                 __ptext3 0960  
                               __ptext4 0616                                 __ptext5 09DE  
                               __ptext6 0864                                 __ptext7 0A60  
                               __ptext8 0A7E                                 __ptext9 0A30  
                             _T1CONbits 000FCD                               _T2CONbits 000FBA  
                        __pintcode_body 07A8                    end_of_initialization 0A4E  
                     ?_send_ask_command 0026                                 golay@cw 0021  
                    ??_send_ask_command 002A                                 int_func 07A8  
          __size_of_util_waits_delay_ms 002C          __size_of_util_waits_delay_mins 0030  
        __size_of_util_waits_delay_secs 004E           __end_of_util_waits_delay_mins 09DE  
         __end_of_util_waits_delay_secs 09AE                               _PORTAbits 000F80  
                             _TRISAbits 000F92                               _TRISBbits 000F93  
                             _TRISDbits 000F95                        ?_init_initialize 0001  
            __end_of_init_io_initialize 07A8               _init_watchdogs_initialize 0A7E  
            __size_of_high_priority_int 085C                ??_init_timer1_initialize 0021  
       send_ask_command@bit_to_transfer 0030                     start_initialization 0A4A  
                util_waits_delay_mins@i 0030                  util_waits_delay_secs@i 0029  
                util_waits_delay_secs@j 002B                ??_init_timer2_initialize 0021  
                      _low_priority_int 0018                       __end_ofweight@F86 0611  
                           __pbssCOMRAM 003C                               __pintcode 0008  
       __size_of_init_timer1_initialize 0026                             __pintcodelo 0018  
                      __CFG_PRICLKEN$ON 000000    send_ask_command@current_signal_level 0032  
                           __smallconst 0600                               _main_loop 08FA  
                   _util_waits_delay_ms 09DE                          __size_of_golay 0096  
       __size_of_init_timer2_initialize 001A                                _LATAbits 000F89  
                              _LATBbits 000F8A                                _LATDbits 000F8C  
                              _IPR1bits 000F9F                                _PIE1bits 000F9D  
                              _PIR1bits 000F9E      __size_of_init_watchdogs_initialize 0004  
                              _RCONbits 000FD0                        __CFG_WDTPS$32768 000000  
                  ?_util_waits_delay_ms 0021               __size_of_send_ask_command 00D6  
                            ?_main_loop 0001                  _init_timer1_initialize 0A0A  
                 util_waits_delay_ms@ms 0021                                __Hrparam 0000  
                    _init_io_initialize 06EC                                __Lrparam 0000  
                 ??_util_waits_delay_ms 0023                            __Lsmallconst 0600  
                     __CFG_P2BMX$PORTC0 000000       __end_of_init_watchdogs_initialize 0A82  
                _init_timer2_initialize 0A30                     ?_init_io_initialize 0001  
              __end_of_low_priority_int 00A6                   _util_waits_delay_mins 09AE  
                 _util_waits_delay_secs 0960                              _ANSELAbits 000F38  
                            _ANSELBbits 000F39                              _ANSELDbits 000F3B  
                              __ptext10 0A0A                                __ptext11 06EC  
                  ??_init_io_initialize 0021                __size_of_init_initialize 0012  
                         __size_of_main 000C                               weight@F86 0601  
                              int$flags 003E                             ??_main_loop 0034  
                            _INTCONbits 000FF2                                intlevel1 0000  
                              intlevel2 0000                            _VREFCON0bits 000F42  
                 main_loop@test_command 0034                        _send_ask_command 0616  
                ?_util_waits_delay_mins 002D                  ?_util_waits_delay_secs 0026  
                     __CFG_T3CMX$PORTB5 000000  
